   1              		.file	"update_word_list.cpp"
   2              		.text
   3              	.Ltext0:
   4              		.section	.text._ZnwmPv,"axG",@progbits,_ZnwmPv,comdat
   5              		.weak	_ZnwmPv
   7              	_ZnwmPv:
   8              	.LASANPC38:
   9              	.LFB38:
  10              		.file 1 "/usr/include/c++/9/new"
   1:/usr/include/c++/9/new **** // The -*- C++ -*- dynamic memory management header.
   2:/usr/include/c++/9/new **** 
   3:/usr/include/c++/9/new **** // Copyright (C) 1994-2019 Free Software Foundation, Inc.
   4:/usr/include/c++/9/new **** 
   5:/usr/include/c++/9/new **** // This file is part of GCC.
   6:/usr/include/c++/9/new **** //
   7:/usr/include/c++/9/new **** // GCC is free software; you can redistribute it and/or modify
   8:/usr/include/c++/9/new **** // it under the terms of the GNU General Public License as published by
   9:/usr/include/c++/9/new **** // the Free Software Foundation; either version 3, or (at your option)
  10:/usr/include/c++/9/new **** // any later version.
  11:/usr/include/c++/9/new **** // 
  12:/usr/include/c++/9/new **** // GCC is distributed in the hope that it will be useful,
  13:/usr/include/c++/9/new **** // but WITHOUT ANY WARRANTY; without even the implied warranty of
  14:/usr/include/c++/9/new **** // MERCHANTABILITY or FITNESS FOR A PARTICULAR PURPOSE.  See the
  15:/usr/include/c++/9/new **** // GNU General Public License for more details.
  16:/usr/include/c++/9/new **** // 
  17:/usr/include/c++/9/new **** // Under Section 7 of GPL version 3, you are granted additional
  18:/usr/include/c++/9/new **** // permissions described in the GCC Runtime Library Exception, version
  19:/usr/include/c++/9/new **** // 3.1, as published by the Free Software Foundation.
  20:/usr/include/c++/9/new **** 
  21:/usr/include/c++/9/new **** // You should have received a copy of the GNU General Public License and
  22:/usr/include/c++/9/new **** // a copy of the GCC Runtime Library Exception along with this program;
  23:/usr/include/c++/9/new **** // see the files COPYING3 and COPYING.RUNTIME respectively.  If not, see
  24:/usr/include/c++/9/new **** // <http://www.gnu.org/licenses/>.
  25:/usr/include/c++/9/new **** 
  26:/usr/include/c++/9/new **** /** @file new
  27:/usr/include/c++/9/new ****  *  This is a Standard C++ Library header.
  28:/usr/include/c++/9/new ****  *
  29:/usr/include/c++/9/new ****  *  The header @c new defines several functions to manage dynamic memory and
  30:/usr/include/c++/9/new ****  *  handling memory allocation errors; see
  31:/usr/include/c++/9/new ****  *  http://gcc.gnu.org/onlinedocs/libstdc++/18_support/howto.html#4 for more.
  32:/usr/include/c++/9/new ****  */
  33:/usr/include/c++/9/new **** 
  34:/usr/include/c++/9/new **** #ifndef _NEW
  35:/usr/include/c++/9/new **** #define _NEW
  36:/usr/include/c++/9/new **** 
  37:/usr/include/c++/9/new **** #pragma GCC system_header
  38:/usr/include/c++/9/new **** 
  39:/usr/include/c++/9/new **** #include <bits/c++config.h>
  40:/usr/include/c++/9/new **** #include <exception>
  41:/usr/include/c++/9/new **** 
  42:/usr/include/c++/9/new **** #pragma GCC visibility push(default)
  43:/usr/include/c++/9/new **** 
  44:/usr/include/c++/9/new **** extern "C++" {
  45:/usr/include/c++/9/new **** 
  46:/usr/include/c++/9/new **** namespace std 
  47:/usr/include/c++/9/new **** {
  48:/usr/include/c++/9/new ****   /**
  49:/usr/include/c++/9/new ****    *  @brief  Exception possibly thrown by @c new.
  50:/usr/include/c++/9/new ****    *  @ingroup exceptions
  51:/usr/include/c++/9/new ****    *
  52:/usr/include/c++/9/new ****    *  @c bad_alloc (or classes derived from it) is used to report allocation
  53:/usr/include/c++/9/new ****    *  errors from the throwing forms of @c new.  */
  54:/usr/include/c++/9/new ****   class bad_alloc : public exception 
  55:/usr/include/c++/9/new ****   {
  56:/usr/include/c++/9/new ****   public:
  57:/usr/include/c++/9/new ****     bad_alloc() throw() { }
  58:/usr/include/c++/9/new **** 
  59:/usr/include/c++/9/new **** #if __cplusplus >= 201103L
  60:/usr/include/c++/9/new ****     bad_alloc(const bad_alloc&) = default;
  61:/usr/include/c++/9/new ****     bad_alloc& operator=(const bad_alloc&) = default;
  62:/usr/include/c++/9/new **** #endif
  63:/usr/include/c++/9/new **** 
  64:/usr/include/c++/9/new ****     // This declaration is not useless:
  65:/usr/include/c++/9/new ****     // http://gcc.gnu.org/onlinedocs/gcc-3.0.2/gcc_6.html#SEC118
  66:/usr/include/c++/9/new ****     virtual ~bad_alloc() throw();
  67:/usr/include/c++/9/new **** 
  68:/usr/include/c++/9/new ****     // See comment in eh_exception.cc.
  69:/usr/include/c++/9/new ****     virtual const char* what() const throw();
  70:/usr/include/c++/9/new ****   };
  71:/usr/include/c++/9/new **** 
  72:/usr/include/c++/9/new **** #if __cplusplus >= 201103L
  73:/usr/include/c++/9/new ****   class bad_array_new_length : public bad_alloc
  74:/usr/include/c++/9/new ****   {
  75:/usr/include/c++/9/new ****   public:
  76:/usr/include/c++/9/new ****     bad_array_new_length() throw() { }
  77:/usr/include/c++/9/new **** 
  78:/usr/include/c++/9/new ****     // This declaration is not useless:
  79:/usr/include/c++/9/new ****     // http://gcc.gnu.org/onlinedocs/gcc-3.0.2/gcc_6.html#SEC118
  80:/usr/include/c++/9/new ****     virtual ~bad_array_new_length() throw();
  81:/usr/include/c++/9/new **** 
  82:/usr/include/c++/9/new ****     // See comment in eh_exception.cc.
  83:/usr/include/c++/9/new ****     virtual const char* what() const throw();
  84:/usr/include/c++/9/new ****   };
  85:/usr/include/c++/9/new **** #endif
  86:/usr/include/c++/9/new **** 
  87:/usr/include/c++/9/new **** #if __cpp_aligned_new
  88:/usr/include/c++/9/new ****   enum class align_val_t: size_t {};
  89:/usr/include/c++/9/new **** #endif
  90:/usr/include/c++/9/new **** 
  91:/usr/include/c++/9/new ****   struct nothrow_t
  92:/usr/include/c++/9/new ****   {
  93:/usr/include/c++/9/new **** #if __cplusplus >= 201103L
  94:/usr/include/c++/9/new ****     explicit nothrow_t() = default;
  95:/usr/include/c++/9/new **** #endif
  96:/usr/include/c++/9/new ****   };
  97:/usr/include/c++/9/new **** 
  98:/usr/include/c++/9/new ****   extern const nothrow_t nothrow;
  99:/usr/include/c++/9/new **** 
 100:/usr/include/c++/9/new ****   /** If you write your own error handler to be called by @c new, it must
 101:/usr/include/c++/9/new ****    *  be of this type.  */
 102:/usr/include/c++/9/new ****   typedef void (*new_handler)();
 103:/usr/include/c++/9/new **** 
 104:/usr/include/c++/9/new ****   /// Takes a replacement handler as the argument, returns the
 105:/usr/include/c++/9/new ****   /// previous handler.
 106:/usr/include/c++/9/new ****   new_handler set_new_handler(new_handler) throw();
 107:/usr/include/c++/9/new **** 
 108:/usr/include/c++/9/new **** #if __cplusplus >= 201103L
 109:/usr/include/c++/9/new ****   /// Return the current new handler.
 110:/usr/include/c++/9/new ****   new_handler get_new_handler() noexcept;
 111:/usr/include/c++/9/new **** #endif
 112:/usr/include/c++/9/new **** } // namespace std
 113:/usr/include/c++/9/new **** 
 114:/usr/include/c++/9/new **** //@{
 115:/usr/include/c++/9/new **** /** These are replaceable signatures:
 116:/usr/include/c++/9/new ****  *  - normal single new and delete (no arguments, throw @c bad_alloc on error)
 117:/usr/include/c++/9/new ****  *  - normal array new and delete (same)
 118:/usr/include/c++/9/new ****  *  - @c nothrow single new and delete (take a @c nothrow argument, return
 119:/usr/include/c++/9/new ****  *    @c NULL on error)
 120:/usr/include/c++/9/new ****  *  - @c nothrow array new and delete (same)
 121:/usr/include/c++/9/new ****  *
 122:/usr/include/c++/9/new ****  *  Placement new and delete signatures (take a memory address argument,
 123:/usr/include/c++/9/new ****  *  does nothing) may not be replaced by a user's program.
 124:/usr/include/c++/9/new **** */
 125:/usr/include/c++/9/new **** _GLIBCXX_NODISCARD void* operator new(std::size_t) _GLIBCXX_THROW (std::bad_alloc)
 126:/usr/include/c++/9/new ****   __attribute__((__externally_visible__));
 127:/usr/include/c++/9/new **** _GLIBCXX_NODISCARD void* operator new[](std::size_t) _GLIBCXX_THROW (std::bad_alloc)
 128:/usr/include/c++/9/new ****   __attribute__((__externally_visible__));
 129:/usr/include/c++/9/new **** void operator delete(void*) _GLIBCXX_USE_NOEXCEPT
 130:/usr/include/c++/9/new ****   __attribute__((__externally_visible__));
 131:/usr/include/c++/9/new **** void operator delete[](void*) _GLIBCXX_USE_NOEXCEPT
 132:/usr/include/c++/9/new ****   __attribute__((__externally_visible__));
 133:/usr/include/c++/9/new **** #if __cpp_sized_deallocation
 134:/usr/include/c++/9/new **** void operator delete(void*, std::size_t) _GLIBCXX_USE_NOEXCEPT
 135:/usr/include/c++/9/new ****   __attribute__((__externally_visible__));
 136:/usr/include/c++/9/new **** void operator delete[](void*, std::size_t) _GLIBCXX_USE_NOEXCEPT
 137:/usr/include/c++/9/new ****   __attribute__((__externally_visible__));
 138:/usr/include/c++/9/new **** #endif
 139:/usr/include/c++/9/new **** _GLIBCXX_NODISCARD void* operator new(std::size_t, const std::nothrow_t&) _GLIBCXX_USE_NOEXCEPT
 140:/usr/include/c++/9/new ****   __attribute__((__externally_visible__, __malloc__));
 141:/usr/include/c++/9/new **** _GLIBCXX_NODISCARD void* operator new[](std::size_t, const std::nothrow_t&) _GLIBCXX_USE_NOEXCEPT
 142:/usr/include/c++/9/new ****   __attribute__((__externally_visible__, __malloc__));
 143:/usr/include/c++/9/new **** void operator delete(void*, const std::nothrow_t&) _GLIBCXX_USE_NOEXCEPT
 144:/usr/include/c++/9/new ****   __attribute__((__externally_visible__));
 145:/usr/include/c++/9/new **** void operator delete[](void*, const std::nothrow_t&) _GLIBCXX_USE_NOEXCEPT
 146:/usr/include/c++/9/new ****   __attribute__((__externally_visible__));
 147:/usr/include/c++/9/new **** #if __cpp_aligned_new
 148:/usr/include/c++/9/new **** _GLIBCXX_NODISCARD void* operator new(std::size_t, std::align_val_t)
 149:/usr/include/c++/9/new ****   __attribute__((__externally_visible__));
 150:/usr/include/c++/9/new **** _GLIBCXX_NODISCARD void* operator new(std::size_t, std::align_val_t, const std::nothrow_t&)
 151:/usr/include/c++/9/new ****   _GLIBCXX_USE_NOEXCEPT __attribute__((__externally_visible__, __malloc__));
 152:/usr/include/c++/9/new **** void operator delete(void*, std::align_val_t)
 153:/usr/include/c++/9/new ****   _GLIBCXX_USE_NOEXCEPT __attribute__((__externally_visible__));
 154:/usr/include/c++/9/new **** void operator delete(void*, std::align_val_t, const std::nothrow_t&)
 155:/usr/include/c++/9/new ****   _GLIBCXX_USE_NOEXCEPT __attribute__((__externally_visible__));
 156:/usr/include/c++/9/new **** _GLIBCXX_NODISCARD void* operator new[](std::size_t, std::align_val_t)
 157:/usr/include/c++/9/new ****   __attribute__((__externally_visible__));
 158:/usr/include/c++/9/new **** _GLIBCXX_NODISCARD void* operator new[](std::size_t, std::align_val_t, const std::nothrow_t&)
 159:/usr/include/c++/9/new ****   _GLIBCXX_USE_NOEXCEPT __attribute__((__externally_visible__, __malloc__));
 160:/usr/include/c++/9/new **** void operator delete[](void*, std::align_val_t)
 161:/usr/include/c++/9/new ****   _GLIBCXX_USE_NOEXCEPT __attribute__((__externally_visible__));
 162:/usr/include/c++/9/new **** void operator delete[](void*, std::align_val_t, const std::nothrow_t&)
 163:/usr/include/c++/9/new ****   _GLIBCXX_USE_NOEXCEPT __attribute__((__externally_visible__));
 164:/usr/include/c++/9/new **** #if __cpp_sized_deallocation
 165:/usr/include/c++/9/new **** void operator delete(void*, std::size_t, std::align_val_t)
 166:/usr/include/c++/9/new ****   _GLIBCXX_USE_NOEXCEPT __attribute__((__externally_visible__));
 167:/usr/include/c++/9/new **** void operator delete[](void*, std::size_t, std::align_val_t)
 168:/usr/include/c++/9/new ****   _GLIBCXX_USE_NOEXCEPT __attribute__((__externally_visible__));
 169:/usr/include/c++/9/new **** #endif // __cpp_sized_deallocation
 170:/usr/include/c++/9/new **** #endif // __cpp_aligned_new
 171:/usr/include/c++/9/new **** 
 172:/usr/include/c++/9/new **** // Default placement versions of operator new.
 173:/usr/include/c++/9/new **** _GLIBCXX_NODISCARD inline void* operator new(std::size_t, void* __p) _GLIBCXX_USE_NOEXCEPT
 174:/usr/include/c++/9/new **** { return __p; }
  11              		.loc 1 174 1
  12              		.cfi_startproc
  13 0000 F30F1EFA 		endbr64
  14 0004 55       		pushq	%rbp
  15              		.cfi_def_cfa_offset 16
  16              		.cfi_offset 6, -16
  17 0005 4889E5   		movq	%rsp, %rbp
  18              		.cfi_def_cfa_register 6
  19 0008 48897DF8 		movq	%rdi, -8(%rbp)
  20 000c 488975F0 		movq	%rsi, -16(%rbp)
  21              		.loc 1 174 10
  22 0010 488B45F0 		movq	-16(%rbp), %rax
  23              		.loc 1 174 15
  24 0014 5D       		popq	%rbp
  25              		.cfi_def_cfa 7, 8
  26 0015 C3       		ret
  27              		.cfi_endproc
  28              	.LFE38:
  30              		.section	.text._ZdlPvS_,"axG",@progbits,_ZdlPvS_,comdat
  31              		.weak	_ZdlPvS_
  33              	_ZdlPvS_:
  34              	.LASANPC40:
  35              	.LFB40:
 175:/usr/include/c++/9/new **** _GLIBCXX_NODISCARD inline void* operator new[](std::size_t, void* __p) _GLIBCXX_USE_NOEXCEPT
 176:/usr/include/c++/9/new **** { return __p; }
 177:/usr/include/c++/9/new **** 
 178:/usr/include/c++/9/new **** // Default placement versions of operator delete.
 179:/usr/include/c++/9/new **** inline void operator delete  (void*, void*) _GLIBCXX_USE_NOEXCEPT { }
  36              		.loc 1 179 67
  37              		.cfi_startproc
  38 0000 F30F1EFA 		endbr64
  39 0004 55       		pushq	%rbp
  40              		.cfi_def_cfa_offset 16
  41              		.cfi_offset 6, -16
  42 0005 4889E5   		movq	%rsp, %rbp
  43              		.cfi_def_cfa_register 6
  44 0008 48897DF8 		movq	%rdi, -8(%rbp)
  45 000c 488975F0 		movq	%rsi, -16(%rbp)
  46              		.loc 1 179 69
  47 0010 90       		nop
  48 0011 5D       		popq	%rbp
  49              		.cfi_def_cfa 7, 8
  50 0012 C3       		ret
  51              		.cfi_endproc
  52              	.LFE40:
  54              		.section	.text._ZNSt11char_traitsIcE6lengthEPKc,"axG",@progbits,_ZNSt11char_traitsIcE6lengthEPKc,c
  55              		.weak	_ZNSt11char_traitsIcE6lengthEPKc
  57              	_ZNSt11char_traitsIcE6lengthEPKc:
  58              	.LASANPC402:
  59              	.LFB402:
  60              		.file 2 "/usr/include/c++/9/bits/char_traits.h"
   1:/usr/include/c++/9/bits/char_traits.h **** // Character Traits for use by standard string and iostream -*- C++ -*-
   2:/usr/include/c++/9/bits/char_traits.h **** 
   3:/usr/include/c++/9/bits/char_traits.h **** // Copyright (C) 1997-2019 Free Software Foundation, Inc.
   4:/usr/include/c++/9/bits/char_traits.h **** //
   5:/usr/include/c++/9/bits/char_traits.h **** // This file is part of the GNU ISO C++ Library.  This library is free
   6:/usr/include/c++/9/bits/char_traits.h **** // software; you can redistribute it and/or modify it under the
   7:/usr/include/c++/9/bits/char_traits.h **** // terms of the GNU General Public License as published by the
   8:/usr/include/c++/9/bits/char_traits.h **** // Free Software Foundation; either version 3, or (at your option)
   9:/usr/include/c++/9/bits/char_traits.h **** // any later version.
  10:/usr/include/c++/9/bits/char_traits.h **** 
  11:/usr/include/c++/9/bits/char_traits.h **** // This library is distributed in the hope that it will be useful,
  12:/usr/include/c++/9/bits/char_traits.h **** // but WITHOUT ANY WARRANTY; without even the implied warranty of
  13:/usr/include/c++/9/bits/char_traits.h **** // MERCHANTABILITY or FITNESS FOR A PARTICULAR PURPOSE.  See the
  14:/usr/include/c++/9/bits/char_traits.h **** // GNU General Public License for more details.
  15:/usr/include/c++/9/bits/char_traits.h **** 
  16:/usr/include/c++/9/bits/char_traits.h **** // Under Section 7 of GPL version 3, you are granted additional
  17:/usr/include/c++/9/bits/char_traits.h **** // permissions described in the GCC Runtime Library Exception, version
  18:/usr/include/c++/9/bits/char_traits.h **** // 3.1, as published by the Free Software Foundation.
  19:/usr/include/c++/9/bits/char_traits.h **** 
  20:/usr/include/c++/9/bits/char_traits.h **** // You should have received a copy of the GNU General Public License and
  21:/usr/include/c++/9/bits/char_traits.h **** // a copy of the GCC Runtime Library Exception along with this program;
  22:/usr/include/c++/9/bits/char_traits.h **** // see the files COPYING3 and COPYING.RUNTIME respectively.  If not, see
  23:/usr/include/c++/9/bits/char_traits.h **** // <http://www.gnu.org/licenses/>.
  24:/usr/include/c++/9/bits/char_traits.h **** 
  25:/usr/include/c++/9/bits/char_traits.h **** /** @file bits/char_traits.h
  26:/usr/include/c++/9/bits/char_traits.h ****  *  This is an internal header file, included by other library headers.
  27:/usr/include/c++/9/bits/char_traits.h ****  *  Do not attempt to use it directly. @headername{string}
  28:/usr/include/c++/9/bits/char_traits.h ****  */
  29:/usr/include/c++/9/bits/char_traits.h **** 
  30:/usr/include/c++/9/bits/char_traits.h **** //
  31:/usr/include/c++/9/bits/char_traits.h **** // ISO C++ 14882: 21  Strings library
  32:/usr/include/c++/9/bits/char_traits.h **** //
  33:/usr/include/c++/9/bits/char_traits.h **** 
  34:/usr/include/c++/9/bits/char_traits.h **** #ifndef _CHAR_TRAITS_H
  35:/usr/include/c++/9/bits/char_traits.h **** #define _CHAR_TRAITS_H 1
  36:/usr/include/c++/9/bits/char_traits.h **** 
  37:/usr/include/c++/9/bits/char_traits.h **** #pragma GCC system_header
  38:/usr/include/c++/9/bits/char_traits.h **** 
  39:/usr/include/c++/9/bits/char_traits.h **** #include <bits/stl_algobase.h>  // std::copy, std::fill_n
  40:/usr/include/c++/9/bits/char_traits.h **** #include <bits/postypes.h>      // For streampos
  41:/usr/include/c++/9/bits/char_traits.h **** #include <cwchar>               // For WEOF, wmemmove, wmemset, etc.
  42:/usr/include/c++/9/bits/char_traits.h **** 
  43:/usr/include/c++/9/bits/char_traits.h **** #ifndef _GLIBCXX_ALWAYS_INLINE
  44:/usr/include/c++/9/bits/char_traits.h **** # define _GLIBCXX_ALWAYS_INLINE inline __attribute__((__always_inline__))
  45:/usr/include/c++/9/bits/char_traits.h **** #endif
  46:/usr/include/c++/9/bits/char_traits.h **** 
  47:/usr/include/c++/9/bits/char_traits.h **** namespace __gnu_cxx _GLIBCXX_VISIBILITY(default)
  48:/usr/include/c++/9/bits/char_traits.h **** {
  49:/usr/include/c++/9/bits/char_traits.h **** _GLIBCXX_BEGIN_NAMESPACE_VERSION
  50:/usr/include/c++/9/bits/char_traits.h **** 
  51:/usr/include/c++/9/bits/char_traits.h ****   /**
  52:/usr/include/c++/9/bits/char_traits.h ****    *  @brief  Mapping from character type to associated types.
  53:/usr/include/c++/9/bits/char_traits.h ****    *
  54:/usr/include/c++/9/bits/char_traits.h ****    *  @note This is an implementation class for the generic version
  55:/usr/include/c++/9/bits/char_traits.h ****    *  of char_traits.  It defines int_type, off_type, pos_type, and
  56:/usr/include/c++/9/bits/char_traits.h ****    *  state_type.  By default these are unsigned long, streamoff,
  57:/usr/include/c++/9/bits/char_traits.h ****    *  streampos, and mbstate_t.  Users who need a different set of
  58:/usr/include/c++/9/bits/char_traits.h ****    *  types, but who don't need to change the definitions of any function
  59:/usr/include/c++/9/bits/char_traits.h ****    *  defined in char_traits, can specialize __gnu_cxx::_Char_types
  60:/usr/include/c++/9/bits/char_traits.h ****    *  while leaving __gnu_cxx::char_traits alone. */
  61:/usr/include/c++/9/bits/char_traits.h ****   template<typename _CharT>
  62:/usr/include/c++/9/bits/char_traits.h ****     struct _Char_types
  63:/usr/include/c++/9/bits/char_traits.h ****     {
  64:/usr/include/c++/9/bits/char_traits.h ****       typedef unsigned long   int_type;
  65:/usr/include/c++/9/bits/char_traits.h ****       typedef std::streampos  pos_type;
  66:/usr/include/c++/9/bits/char_traits.h ****       typedef std::streamoff  off_type;
  67:/usr/include/c++/9/bits/char_traits.h ****       typedef std::mbstate_t  state_type;
  68:/usr/include/c++/9/bits/char_traits.h ****     };
  69:/usr/include/c++/9/bits/char_traits.h **** 
  70:/usr/include/c++/9/bits/char_traits.h **** 
  71:/usr/include/c++/9/bits/char_traits.h ****   /**
  72:/usr/include/c++/9/bits/char_traits.h ****    *  @brief  Base class used to implement std::char_traits.
  73:/usr/include/c++/9/bits/char_traits.h ****    *
  74:/usr/include/c++/9/bits/char_traits.h ****    *  @note For any given actual character type, this definition is
  75:/usr/include/c++/9/bits/char_traits.h ****    *  probably wrong.  (Most of the member functions are likely to be
  76:/usr/include/c++/9/bits/char_traits.h ****    *  right, but the int_type and state_type typedefs, and the eof()
  77:/usr/include/c++/9/bits/char_traits.h ****    *  member function, are likely to be wrong.)  The reason this class
  78:/usr/include/c++/9/bits/char_traits.h ****    *  exists is so users can specialize it.  Classes in namespace std
  79:/usr/include/c++/9/bits/char_traits.h ****    *  may not be specialized for fundamental types, but classes in
  80:/usr/include/c++/9/bits/char_traits.h ****    *  namespace __gnu_cxx may be.
  81:/usr/include/c++/9/bits/char_traits.h ****    *
  82:/usr/include/c++/9/bits/char_traits.h ****    *  See https://gcc.gnu.org/onlinedocs/libstdc++/manual/strings.html#strings.string.character_typ
  83:/usr/include/c++/9/bits/char_traits.h ****    *  for advice on how to make use of this class for @a unusual character
  84:/usr/include/c++/9/bits/char_traits.h ****    *  types. Also, check out include/ext/pod_char_traits.h.  
  85:/usr/include/c++/9/bits/char_traits.h ****    */
  86:/usr/include/c++/9/bits/char_traits.h ****   template<typename _CharT>
  87:/usr/include/c++/9/bits/char_traits.h ****     struct char_traits
  88:/usr/include/c++/9/bits/char_traits.h ****     {
  89:/usr/include/c++/9/bits/char_traits.h ****       typedef _CharT                                    char_type;
  90:/usr/include/c++/9/bits/char_traits.h ****       typedef typename _Char_types<_CharT>::int_type    int_type;
  91:/usr/include/c++/9/bits/char_traits.h ****       typedef typename _Char_types<_CharT>::pos_type    pos_type;
  92:/usr/include/c++/9/bits/char_traits.h ****       typedef typename _Char_types<_CharT>::off_type    off_type;
  93:/usr/include/c++/9/bits/char_traits.h ****       typedef typename _Char_types<_CharT>::state_type  state_type;
  94:/usr/include/c++/9/bits/char_traits.h **** 
  95:/usr/include/c++/9/bits/char_traits.h ****       static _GLIBCXX14_CONSTEXPR void
  96:/usr/include/c++/9/bits/char_traits.h ****       assign(char_type& __c1, const char_type& __c2)
  97:/usr/include/c++/9/bits/char_traits.h ****       { __c1 = __c2; }
  98:/usr/include/c++/9/bits/char_traits.h **** 
  99:/usr/include/c++/9/bits/char_traits.h ****       static _GLIBCXX_CONSTEXPR bool
 100:/usr/include/c++/9/bits/char_traits.h ****       eq(const char_type& __c1, const char_type& __c2)
 101:/usr/include/c++/9/bits/char_traits.h ****       { return __c1 == __c2; }
 102:/usr/include/c++/9/bits/char_traits.h **** 
 103:/usr/include/c++/9/bits/char_traits.h ****       static _GLIBCXX_CONSTEXPR bool
 104:/usr/include/c++/9/bits/char_traits.h ****       lt(const char_type& __c1, const char_type& __c2)
 105:/usr/include/c++/9/bits/char_traits.h ****       { return __c1 < __c2; }
 106:/usr/include/c++/9/bits/char_traits.h **** 
 107:/usr/include/c++/9/bits/char_traits.h ****       static _GLIBCXX14_CONSTEXPR int
 108:/usr/include/c++/9/bits/char_traits.h ****       compare(const char_type* __s1, const char_type* __s2, std::size_t __n);
 109:/usr/include/c++/9/bits/char_traits.h **** 
 110:/usr/include/c++/9/bits/char_traits.h ****       static _GLIBCXX14_CONSTEXPR std::size_t
 111:/usr/include/c++/9/bits/char_traits.h ****       length(const char_type* __s);
 112:/usr/include/c++/9/bits/char_traits.h **** 
 113:/usr/include/c++/9/bits/char_traits.h ****       static _GLIBCXX14_CONSTEXPR const char_type*
 114:/usr/include/c++/9/bits/char_traits.h ****       find(const char_type* __s, std::size_t __n, const char_type& __a);
 115:/usr/include/c++/9/bits/char_traits.h **** 
 116:/usr/include/c++/9/bits/char_traits.h ****       static char_type*
 117:/usr/include/c++/9/bits/char_traits.h ****       move(char_type* __s1, const char_type* __s2, std::size_t __n);
 118:/usr/include/c++/9/bits/char_traits.h **** 
 119:/usr/include/c++/9/bits/char_traits.h ****       static char_type*
 120:/usr/include/c++/9/bits/char_traits.h ****       copy(char_type* __s1, const char_type* __s2, std::size_t __n);
 121:/usr/include/c++/9/bits/char_traits.h **** 
 122:/usr/include/c++/9/bits/char_traits.h ****       static char_type*
 123:/usr/include/c++/9/bits/char_traits.h ****       assign(char_type* __s, std::size_t __n, char_type __a);
 124:/usr/include/c++/9/bits/char_traits.h **** 
 125:/usr/include/c++/9/bits/char_traits.h ****       static _GLIBCXX_CONSTEXPR char_type
 126:/usr/include/c++/9/bits/char_traits.h ****       to_char_type(const int_type& __c)
 127:/usr/include/c++/9/bits/char_traits.h ****       { return static_cast<char_type>(__c); }
 128:/usr/include/c++/9/bits/char_traits.h **** 
 129:/usr/include/c++/9/bits/char_traits.h ****       static _GLIBCXX_CONSTEXPR int_type
 130:/usr/include/c++/9/bits/char_traits.h ****       to_int_type(const char_type& __c)
 131:/usr/include/c++/9/bits/char_traits.h ****       { return static_cast<int_type>(__c); }
 132:/usr/include/c++/9/bits/char_traits.h **** 
 133:/usr/include/c++/9/bits/char_traits.h ****       static _GLIBCXX_CONSTEXPR bool
 134:/usr/include/c++/9/bits/char_traits.h ****       eq_int_type(const int_type& __c1, const int_type& __c2)
 135:/usr/include/c++/9/bits/char_traits.h ****       { return __c1 == __c2; }
 136:/usr/include/c++/9/bits/char_traits.h **** 
 137:/usr/include/c++/9/bits/char_traits.h ****       static _GLIBCXX_CONSTEXPR int_type
 138:/usr/include/c++/9/bits/char_traits.h ****       eof()
 139:/usr/include/c++/9/bits/char_traits.h ****       { return static_cast<int_type>(_GLIBCXX_STDIO_EOF); }
 140:/usr/include/c++/9/bits/char_traits.h **** 
 141:/usr/include/c++/9/bits/char_traits.h ****       static _GLIBCXX_CONSTEXPR int_type
 142:/usr/include/c++/9/bits/char_traits.h ****       not_eof(const int_type& __c)
 143:/usr/include/c++/9/bits/char_traits.h ****       { return !eq_int_type(__c, eof()) ? __c : to_int_type(char_type()); }
 144:/usr/include/c++/9/bits/char_traits.h ****     };
 145:/usr/include/c++/9/bits/char_traits.h **** 
 146:/usr/include/c++/9/bits/char_traits.h ****   template<typename _CharT>
 147:/usr/include/c++/9/bits/char_traits.h ****     _GLIBCXX14_CONSTEXPR int
 148:/usr/include/c++/9/bits/char_traits.h ****     char_traits<_CharT>::
 149:/usr/include/c++/9/bits/char_traits.h ****     compare(const char_type* __s1, const char_type* __s2, std::size_t __n)
 150:/usr/include/c++/9/bits/char_traits.h ****     {
 151:/usr/include/c++/9/bits/char_traits.h ****       for (std::size_t __i = 0; __i < __n; ++__i)
 152:/usr/include/c++/9/bits/char_traits.h **** 	if (lt(__s1[__i], __s2[__i]))
 153:/usr/include/c++/9/bits/char_traits.h **** 	  return -1;
 154:/usr/include/c++/9/bits/char_traits.h **** 	else if (lt(__s2[__i], __s1[__i]))
 155:/usr/include/c++/9/bits/char_traits.h **** 	  return 1;
 156:/usr/include/c++/9/bits/char_traits.h ****       return 0;
 157:/usr/include/c++/9/bits/char_traits.h ****     }
 158:/usr/include/c++/9/bits/char_traits.h **** 
 159:/usr/include/c++/9/bits/char_traits.h ****   template<typename _CharT>
 160:/usr/include/c++/9/bits/char_traits.h ****     _GLIBCXX14_CONSTEXPR std::size_t
 161:/usr/include/c++/9/bits/char_traits.h ****     char_traits<_CharT>::
 162:/usr/include/c++/9/bits/char_traits.h ****     length(const char_type* __p)
 163:/usr/include/c++/9/bits/char_traits.h ****     {
 164:/usr/include/c++/9/bits/char_traits.h ****       std::size_t __i = 0;
 165:/usr/include/c++/9/bits/char_traits.h ****       while (!eq(__p[__i], char_type()))
 166:/usr/include/c++/9/bits/char_traits.h ****         ++__i;
 167:/usr/include/c++/9/bits/char_traits.h ****       return __i;
 168:/usr/include/c++/9/bits/char_traits.h ****     }
 169:/usr/include/c++/9/bits/char_traits.h **** 
 170:/usr/include/c++/9/bits/char_traits.h ****   template<typename _CharT>
 171:/usr/include/c++/9/bits/char_traits.h ****     _GLIBCXX14_CONSTEXPR const typename char_traits<_CharT>::char_type*
 172:/usr/include/c++/9/bits/char_traits.h ****     char_traits<_CharT>::
 173:/usr/include/c++/9/bits/char_traits.h ****     find(const char_type* __s, std::size_t __n, const char_type& __a)
 174:/usr/include/c++/9/bits/char_traits.h ****     {
 175:/usr/include/c++/9/bits/char_traits.h ****       for (std::size_t __i = 0; __i < __n; ++__i)
 176:/usr/include/c++/9/bits/char_traits.h ****         if (eq(__s[__i], __a))
 177:/usr/include/c++/9/bits/char_traits.h ****           return __s + __i;
 178:/usr/include/c++/9/bits/char_traits.h ****       return 0;
 179:/usr/include/c++/9/bits/char_traits.h ****     }
 180:/usr/include/c++/9/bits/char_traits.h **** 
 181:/usr/include/c++/9/bits/char_traits.h ****   template<typename _CharT>
 182:/usr/include/c++/9/bits/char_traits.h ****     typename char_traits<_CharT>::char_type*
 183:/usr/include/c++/9/bits/char_traits.h ****     char_traits<_CharT>::
 184:/usr/include/c++/9/bits/char_traits.h ****     move(char_type* __s1, const char_type* __s2, std::size_t __n)
 185:/usr/include/c++/9/bits/char_traits.h ****     {
 186:/usr/include/c++/9/bits/char_traits.h ****       if (__n == 0)
 187:/usr/include/c++/9/bits/char_traits.h **** 	return __s1;
 188:/usr/include/c++/9/bits/char_traits.h ****       return static_cast<_CharT*>(__builtin_memmove(__s1, __s2,
 189:/usr/include/c++/9/bits/char_traits.h **** 						    __n * sizeof(char_type)));
 190:/usr/include/c++/9/bits/char_traits.h ****     }
 191:/usr/include/c++/9/bits/char_traits.h **** 
 192:/usr/include/c++/9/bits/char_traits.h ****   template<typename _CharT>
 193:/usr/include/c++/9/bits/char_traits.h ****     typename char_traits<_CharT>::char_type*
 194:/usr/include/c++/9/bits/char_traits.h ****     char_traits<_CharT>::
 195:/usr/include/c++/9/bits/char_traits.h ****     copy(char_type* __s1, const char_type* __s2, std::size_t __n)
 196:/usr/include/c++/9/bits/char_traits.h ****     {
 197:/usr/include/c++/9/bits/char_traits.h ****       // NB: Inline std::copy so no recursive dependencies.
 198:/usr/include/c++/9/bits/char_traits.h ****       std::copy(__s2, __s2 + __n, __s1);
 199:/usr/include/c++/9/bits/char_traits.h ****       return __s1;
 200:/usr/include/c++/9/bits/char_traits.h ****     }
 201:/usr/include/c++/9/bits/char_traits.h **** 
 202:/usr/include/c++/9/bits/char_traits.h ****   template<typename _CharT>
 203:/usr/include/c++/9/bits/char_traits.h ****     typename char_traits<_CharT>::char_type*
 204:/usr/include/c++/9/bits/char_traits.h ****     char_traits<_CharT>::
 205:/usr/include/c++/9/bits/char_traits.h ****     assign(char_type* __s, std::size_t __n, char_type __a)
 206:/usr/include/c++/9/bits/char_traits.h ****     {
 207:/usr/include/c++/9/bits/char_traits.h ****       // NB: Inline std::fill_n so no recursive dependencies.
 208:/usr/include/c++/9/bits/char_traits.h ****       std::fill_n(__s, __n, __a);
 209:/usr/include/c++/9/bits/char_traits.h ****       return __s;
 210:/usr/include/c++/9/bits/char_traits.h ****     }
 211:/usr/include/c++/9/bits/char_traits.h **** 
 212:/usr/include/c++/9/bits/char_traits.h **** _GLIBCXX_END_NAMESPACE_VERSION
 213:/usr/include/c++/9/bits/char_traits.h **** } // namespace
 214:/usr/include/c++/9/bits/char_traits.h **** 
 215:/usr/include/c++/9/bits/char_traits.h **** namespace std _GLIBCXX_VISIBILITY(default)
 216:/usr/include/c++/9/bits/char_traits.h **** {
 217:/usr/include/c++/9/bits/char_traits.h **** _GLIBCXX_BEGIN_NAMESPACE_VERSION
 218:/usr/include/c++/9/bits/char_traits.h **** 
 219:/usr/include/c++/9/bits/char_traits.h **** #if __cplusplus >= 201703L
 220:/usr/include/c++/9/bits/char_traits.h **** #define __cpp_lib_constexpr_char_traits 201611
 221:/usr/include/c++/9/bits/char_traits.h **** 
 222:/usr/include/c++/9/bits/char_traits.h ****   /**
 223:/usr/include/c++/9/bits/char_traits.h ****    *  @brief Determine whether the characters of a NULL-terminated
 224:/usr/include/c++/9/bits/char_traits.h ****    *  string are known at compile time.
 225:/usr/include/c++/9/bits/char_traits.h ****    *  @param  __s  The string.
 226:/usr/include/c++/9/bits/char_traits.h ****    *
 227:/usr/include/c++/9/bits/char_traits.h ****    *  Assumes that _CharT is a built-in character type.
 228:/usr/include/c++/9/bits/char_traits.h ****    */
 229:/usr/include/c++/9/bits/char_traits.h ****   template<typename _CharT>
 230:/usr/include/c++/9/bits/char_traits.h ****     static _GLIBCXX_ALWAYS_INLINE constexpr bool
 231:/usr/include/c++/9/bits/char_traits.h ****     __constant_string_p(const _CharT* __s)
 232:/usr/include/c++/9/bits/char_traits.h ****     {
 233:/usr/include/c++/9/bits/char_traits.h **** #ifdef _GLIBCXX_HAVE_BUILTIN_IS_CONSTANT_EVALUATED
 234:/usr/include/c++/9/bits/char_traits.h ****       (void) __s;
 235:/usr/include/c++/9/bits/char_traits.h ****       // In constexpr contexts all strings should be constant.
 236:/usr/include/c++/9/bits/char_traits.h ****       return __builtin_is_constant_evaluated();
 237:/usr/include/c++/9/bits/char_traits.h **** #else
 238:/usr/include/c++/9/bits/char_traits.h ****       while (__builtin_constant_p(*__s) && *__s)
 239:/usr/include/c++/9/bits/char_traits.h **** 	__s++;
 240:/usr/include/c++/9/bits/char_traits.h ****       return __builtin_constant_p(*__s);
 241:/usr/include/c++/9/bits/char_traits.h **** #endif
 242:/usr/include/c++/9/bits/char_traits.h ****     }
 243:/usr/include/c++/9/bits/char_traits.h **** 
 244:/usr/include/c++/9/bits/char_traits.h ****   /**
 245:/usr/include/c++/9/bits/char_traits.h ****    *  @brief Determine whether the characters of a character array are
 246:/usr/include/c++/9/bits/char_traits.h ****    *  known at compile time.
 247:/usr/include/c++/9/bits/char_traits.h ****    *  @param  __a  The character array.
 248:/usr/include/c++/9/bits/char_traits.h ****    *  @param  __n  Number of characters.
 249:/usr/include/c++/9/bits/char_traits.h ****    *
 250:/usr/include/c++/9/bits/char_traits.h ****    *  Assumes that _CharT is a built-in character type.
 251:/usr/include/c++/9/bits/char_traits.h ****    */
 252:/usr/include/c++/9/bits/char_traits.h ****   template<typename _CharT>
 253:/usr/include/c++/9/bits/char_traits.h ****     static _GLIBCXX_ALWAYS_INLINE constexpr bool
 254:/usr/include/c++/9/bits/char_traits.h ****     __constant_char_array_p(const _CharT* __a, size_t __n)
 255:/usr/include/c++/9/bits/char_traits.h ****     {
 256:/usr/include/c++/9/bits/char_traits.h **** #ifdef _GLIBCXX_HAVE_BUILTIN_IS_CONSTANT_EVALUATED
 257:/usr/include/c++/9/bits/char_traits.h ****       (void) __a;
 258:/usr/include/c++/9/bits/char_traits.h ****       (void) __n;
 259:/usr/include/c++/9/bits/char_traits.h ****       // In constexpr contexts all character arrays should be constant.
 260:/usr/include/c++/9/bits/char_traits.h ****       return __builtin_is_constant_evaluated();
 261:/usr/include/c++/9/bits/char_traits.h **** #else
 262:/usr/include/c++/9/bits/char_traits.h ****       size_t __i = 0;
 263:/usr/include/c++/9/bits/char_traits.h ****       while (__i < __n && __builtin_constant_p(__a[__i]))
 264:/usr/include/c++/9/bits/char_traits.h **** 	__i++;
 265:/usr/include/c++/9/bits/char_traits.h ****       return __i == __n;
 266:/usr/include/c++/9/bits/char_traits.h **** #endif
 267:/usr/include/c++/9/bits/char_traits.h ****     }
 268:/usr/include/c++/9/bits/char_traits.h **** #endif
 269:/usr/include/c++/9/bits/char_traits.h **** 
 270:/usr/include/c++/9/bits/char_traits.h ****   // 21.1
 271:/usr/include/c++/9/bits/char_traits.h ****   /**
 272:/usr/include/c++/9/bits/char_traits.h ****    *  @brief  Basis for explicit traits specializations.
 273:/usr/include/c++/9/bits/char_traits.h ****    *
 274:/usr/include/c++/9/bits/char_traits.h ****    *  @note  For any given actual character type, this definition is
 275:/usr/include/c++/9/bits/char_traits.h ****    *  probably wrong.  Since this is just a thin wrapper around
 276:/usr/include/c++/9/bits/char_traits.h ****    *  __gnu_cxx::char_traits, it is possible to achieve a more
 277:/usr/include/c++/9/bits/char_traits.h ****    *  appropriate definition by specializing __gnu_cxx::char_traits.
 278:/usr/include/c++/9/bits/char_traits.h ****    *
 279:/usr/include/c++/9/bits/char_traits.h ****    *  See https://gcc.gnu.org/onlinedocs/libstdc++/manual/strings.html#strings.string.character_typ
 280:/usr/include/c++/9/bits/char_traits.h ****    *  for advice on how to make use of this class for @a unusual character
 281:/usr/include/c++/9/bits/char_traits.h ****    *  types. Also, check out include/ext/pod_char_traits.h.
 282:/usr/include/c++/9/bits/char_traits.h ****   */
 283:/usr/include/c++/9/bits/char_traits.h ****   template<class _CharT>
 284:/usr/include/c++/9/bits/char_traits.h ****     struct char_traits : public __gnu_cxx::char_traits<_CharT>
 285:/usr/include/c++/9/bits/char_traits.h ****     { };
 286:/usr/include/c++/9/bits/char_traits.h **** 
 287:/usr/include/c++/9/bits/char_traits.h **** 
 288:/usr/include/c++/9/bits/char_traits.h ****   /// 21.1.3.1  char_traits specializations
 289:/usr/include/c++/9/bits/char_traits.h ****   template<>
 290:/usr/include/c++/9/bits/char_traits.h ****     struct char_traits<char>
 291:/usr/include/c++/9/bits/char_traits.h ****     {
 292:/usr/include/c++/9/bits/char_traits.h ****       typedef char              char_type;
 293:/usr/include/c++/9/bits/char_traits.h ****       typedef int               int_type;
 294:/usr/include/c++/9/bits/char_traits.h ****       typedef streampos         pos_type;
 295:/usr/include/c++/9/bits/char_traits.h ****       typedef streamoff         off_type;
 296:/usr/include/c++/9/bits/char_traits.h ****       typedef mbstate_t         state_type;
 297:/usr/include/c++/9/bits/char_traits.h **** 
 298:/usr/include/c++/9/bits/char_traits.h ****       static _GLIBCXX17_CONSTEXPR void
 299:/usr/include/c++/9/bits/char_traits.h ****       assign(char_type& __c1, const char_type& __c2) _GLIBCXX_NOEXCEPT
 300:/usr/include/c++/9/bits/char_traits.h ****       { __c1 = __c2; }
 301:/usr/include/c++/9/bits/char_traits.h **** 
 302:/usr/include/c++/9/bits/char_traits.h ****       static _GLIBCXX_CONSTEXPR bool
 303:/usr/include/c++/9/bits/char_traits.h ****       eq(const char_type& __c1, const char_type& __c2) _GLIBCXX_NOEXCEPT
 304:/usr/include/c++/9/bits/char_traits.h ****       { return __c1 == __c2; }
 305:/usr/include/c++/9/bits/char_traits.h **** 
 306:/usr/include/c++/9/bits/char_traits.h ****       static _GLIBCXX_CONSTEXPR bool
 307:/usr/include/c++/9/bits/char_traits.h ****       lt(const char_type& __c1, const char_type& __c2) _GLIBCXX_NOEXCEPT
 308:/usr/include/c++/9/bits/char_traits.h ****       {
 309:/usr/include/c++/9/bits/char_traits.h **** 	// LWG 467.
 310:/usr/include/c++/9/bits/char_traits.h **** 	return (static_cast<unsigned char>(__c1)
 311:/usr/include/c++/9/bits/char_traits.h **** 		< static_cast<unsigned char>(__c2));
 312:/usr/include/c++/9/bits/char_traits.h ****       }
 313:/usr/include/c++/9/bits/char_traits.h **** 
 314:/usr/include/c++/9/bits/char_traits.h ****       static _GLIBCXX17_CONSTEXPR int
 315:/usr/include/c++/9/bits/char_traits.h ****       compare(const char_type* __s1, const char_type* __s2, size_t __n)
 316:/usr/include/c++/9/bits/char_traits.h ****       {
 317:/usr/include/c++/9/bits/char_traits.h **** 	if (__n == 0)
 318:/usr/include/c++/9/bits/char_traits.h **** 	  return 0;
 319:/usr/include/c++/9/bits/char_traits.h **** #if __cplusplus >= 201703L
 320:/usr/include/c++/9/bits/char_traits.h **** 	if (__builtin_constant_p(__n)
 321:/usr/include/c++/9/bits/char_traits.h **** 	    && __constant_char_array_p(__s1, __n)
 322:/usr/include/c++/9/bits/char_traits.h **** 	    && __constant_char_array_p(__s2, __n))
 323:/usr/include/c++/9/bits/char_traits.h **** 	  {
 324:/usr/include/c++/9/bits/char_traits.h **** 	    for (size_t __i = 0; __i < __n; ++__i)
 325:/usr/include/c++/9/bits/char_traits.h **** 	      if (lt(__s1[__i], __s2[__i]))
 326:/usr/include/c++/9/bits/char_traits.h **** 		return -1;
 327:/usr/include/c++/9/bits/char_traits.h **** 	      else if (lt(__s2[__i], __s1[__i]))
 328:/usr/include/c++/9/bits/char_traits.h **** 		return 1;
 329:/usr/include/c++/9/bits/char_traits.h **** 	    return 0;
 330:/usr/include/c++/9/bits/char_traits.h **** 	  }
 331:/usr/include/c++/9/bits/char_traits.h **** #endif
 332:/usr/include/c++/9/bits/char_traits.h **** 	return __builtin_memcmp(__s1, __s2, __n);
 333:/usr/include/c++/9/bits/char_traits.h ****       }
 334:/usr/include/c++/9/bits/char_traits.h **** 
 335:/usr/include/c++/9/bits/char_traits.h ****       static _GLIBCXX17_CONSTEXPR size_t
 336:/usr/include/c++/9/bits/char_traits.h ****       length(const char_type* __s)
  61              		.loc 2 336 7
  62              		.cfi_startproc
  63 0000 F30F1EFA 		endbr64
  64 0004 55       		pushq	%rbp
  65              		.cfi_def_cfa_offset 16
  66              		.cfi_offset 6, -16
  67 0005 4889E5   		movq	%rsp, %rbp
  68              		.cfi_def_cfa_register 6
  69 0008 4883EC20 		subq	$32, %rsp
  70 000c 48897DE8 		movq	%rdi, -24(%rbp)
  71 0010 488B45E8 		movq	-24(%rbp), %rax
  72 0014 488945F8 		movq	%rax, -8(%rbp)
  73              	.LBB4:
  74              	.LBB5:
 236:/usr/include/c++/9/bits/char_traits.h **** #else
  75              		.loc 2 236 46
  76 0018 B8000000 		movl	$0, %eax
  76      00
  77              	.LBE5:
  78              	.LBE4:
 337:/usr/include/c++/9/bits/char_traits.h ****       {
 338:/usr/include/c++/9/bits/char_traits.h **** #if __cplusplus >= 201703L
 339:/usr/include/c++/9/bits/char_traits.h **** 	if (__constant_string_p(__s))
  79              		.loc 2 339 2
  80 001d 84C0     		testb	%al, %al
  81 001f 740E     		je	.L6
 340:/usr/include/c++/9/bits/char_traits.h **** 	  return __gnu_cxx::char_traits<char_type>::length(__s);
  82              		.loc 2 340 52
  83 0021 488B45E8 		movq	-24(%rbp), %rax
  84 0025 4889C7   		movq	%rax, %rdi
  85 0028 E8000000 		call	_ZN9__gnu_cxx11char_traitsIcE6lengthEPKc
  85      00
  86              		.loc 2 340 56
  87 002d EB20     		jmp	.L7
  88              	.L6:
 341:/usr/include/c++/9/bits/char_traits.h **** #endif
 342:/usr/include/c++/9/bits/char_traits.h **** 	return __builtin_strlen(__s);
  89              		.loc 2 342 25
  90 002f 48837DE8 		cmpq	$0, -24(%rbp)
  90      00
  91 0034 750C     		jne	.L8
  92 0036 488D3D00 		leaq	.Lubsan_data373(%rip), %rdi
  92      000000
  93 003d E8000000 		call	__ubsan_handle_nonnull_arg@PLT
  93      00
  94              	.L8:
  95 0042 488B45E8 		movq	-24(%rbp), %rax
  96 0046 4889C7   		movq	%rax, %rdi
  97 0049 E8000000 		call	strlen@PLT
  97      00
  98              		.loc 2 342 29
  99 004e 90       		nop
 100              	.L7:
 343:/usr/include/c++/9/bits/char_traits.h ****       }
 101              		.loc 2 343 7
 102 004f C9       		leave
 103              		.cfi_def_cfa 7, 8
 104 0050 C3       		ret
 105              		.cfi_endproc
 106              	.LFE402:
 108              		.data
 109              		.align 32
 112              	.Lubsan_type4:
 115 0004 2776616C 		.string	"'value_type'"
 115      75655F74 
 115      79706527 
 115      00
 116 0011 00000000 		.zero	47
 116      00000000 
 116      00000000 
 116      00000000 
 116      00000000 
 117              		.section	.rodata
 118              		.align 32
 119              	.LC0:
 120 0000 2F686F6D 		.string	"/home/arkel/c++/wordle/files/update_word_list.cpp"
 120      652F6172 
 120      6B656C2F 
 120      632B2B2F 
 120      776F7264 
 121 0032 00000000 		.zero	46
 121      00000000 
 121      00000000 
 121      00000000 
 121      00000000 
 122              		.section	.data.rel.local,"aw"
 123              		.align 32
 126              	.Lubsan_data374:
 127 0000 00000000 		.quad	.LC0
 127      00000000 
 128 0008 0A000000 		.long	10
 129 000c 11000000 		.long	17
 130 0010 00000000 		.quad	.Lubsan_type4
 130      00000000 
 131 0018 00       		.byte	0
 132 0019 00       		.byte	0
 133 001a 00000000 		.zero	6
 133      0000
 134 0020 00000000 		.zero	32
 134      00000000 
 134      00000000 
 134      00000000 
 134      00000000 
 135              		.align 32
 138              	.Lubsan_data375:
 139 0040 00000000 		.quad	.LC0
 139      00000000 
 140 0048 0B000000 		.long	11
 141 004c 21000000 		.long	33
 142 0050 00000000 		.zero	48
 142      00000000 
 142      00000000 
 142      00000000 
 142      00000000 
 143              		.align 32
 146              	.Lubsan_data376:
 147 0080 00000000 		.quad	.LC0
 147      00000000 
 148 0088 0B000000 		.long	11
 149 008c 21000000 		.long	33
 150 0090 00000000 		.zero	48
 150      00000000 
 150      00000000 
 150      00000000 
 150      00000000 
 151              		.data
 152              		.align 32
 155              	.Lubsan_type5:
 158 0044 27737472 		.string	"'struct basic_string'"
 158      75637420 
 158      62617369 
 158      635F7374 
 158      72696E67 
 159 005a 00000000 		.zero	38
 159      00000000 
 159      00000000 
 159      00000000 
 159      00000000 
 160              		.section	.data.rel.local
 161              		.align 32
 164              	.Lubsan_data377:
 165 00c0 00000000 		.quad	.LC0
 165      00000000 
 166 00c8 0B000000 		.long	11
 167 00cc 21000000 		.long	33
 168 00d0 00000000 		.quad	.Lubsan_type5
 168      00000000 
 169 00d8 03       		.byte	3
 170 00d9 04       		.byte	4
 171 00da 00000000 		.zero	6
 171      0000
 172 00e0 00000000 		.zero	32
 172      00000000 
 172      00000000 
 172      00000000 
 172      00000000 
 173              		.align 32
 176              	.Lubsan_data378:
 177 0100 00000000 		.quad	.LC0
 177      00000000 
 178 0108 0D000000 		.long	13
 179 010c 41000000 		.long	65
 180 0110 00000000 		.zero	48
 180      00000000 
 180      00000000 
 180      00000000 
 180      00000000 
 181              		.align 32
 184              	.Lubsan_data379:
 185 0140 00000000 		.quad	.LC0
 185      00000000 
 186 0148 0D000000 		.long	13
 187 014c 41000000 		.long	65
 188 0150 00000000 		.zero	48
 188      00000000 
 188      00000000 
 188      00000000 
 188      00000000 
 189              		.align 32
 192              	.Lubsan_data380:
 193 0180 00000000 		.quad	.LC0
 193      00000000 
 194 0188 0D000000 		.long	13
 195 018c 41000000 		.long	65
 196 0190 00000000 		.quad	.Lubsan_type5
 196      00000000 
 197 0198 03       		.byte	3
 198 0199 04       		.byte	4
 199 019a 00000000 		.zero	6
 199      0000
 200 01a0 00000000 		.zero	32
 200      00000000 
 200      00000000 
 200      00000000 
 200      00000000 
 201              		.align 32
 204              	.Lubsan_data381:
 205 01c0 00000000 		.quad	.LC0
 205      00000000 
 206 01c8 0B000000 		.long	11
 207 01cc 21000000 		.long	33
 208 01d0 00000000 		.zero	48
 208      00000000 
 208      00000000 
 208      00000000 
 208      00000000 
 209              		.align 32
 212              	.Lubsan_data382:
 213 0200 00000000 		.quad	.LC0
 213      00000000 
 214 0208 0B000000 		.long	11
 215 020c 21000000 		.long	33
 216 0210 00000000 		.zero	48
 216      00000000 
 216      00000000 
 216      00000000 
 216      00000000 
 217              		.align 32
 220              	.Lubsan_data383:
 221 0240 00000000 		.quad	.LC0
 221      00000000 
 222 0248 0B000000 		.long	11
 223 024c 21000000 		.long	33
 224 0250 00000000 		.quad	.Lubsan_type5
 224      00000000 
 225 0258 03       		.byte	3
 226 0259 04       		.byte	4
 227 025a 00000000 		.zero	6
 227      0000
 228 0260 00000000 		.zero	32
 228      00000000 
 228      00000000 
 228      00000000 
 228      00000000 
 229              		.align 32
 232              	.Lubsan_data384:
 233 0280 00000000 		.quad	.LC0
 233      00000000 
 234 0288 0D000000 		.long	13
 235 028c 41000000 		.long	65
 236 0290 00000000 		.zero	48
 236      00000000 
 236      00000000 
 236      00000000 
 236      00000000 
 237              		.align 32
 240              	.Lubsan_data385:
 241 02c0 00000000 		.quad	.LC0
 241      00000000 
 242 02c8 0D000000 		.long	13
 243 02cc 41000000 		.long	65
 244 02d0 00000000 		.zero	48
 244      00000000 
 244      00000000 
 244      00000000 
 244      00000000 
 245              		.align 32
 248              	.Lubsan_data386:
 249 0300 00000000 		.quad	.LC0
 249      00000000 
 250 0308 0D000000 		.long	13
 251 030c 41000000 		.long	65
 252 0310 00000000 		.quad	.Lubsan_type5
 252      00000000 
 253 0318 03       		.byte	3
 254 0319 04       		.byte	4
 255 031a 00000000 		.zero	6
 255      0000
 256 0320 00000000 		.zero	32
 256      00000000 
 256      00000000 
 256      00000000 
 256      00000000 
 257              		.globl	__asan_stack_malloc_3
 258              		.section	.rodata
 259              		.align 8
 260              	.LC1:
 261 0060 35203438 		.string	"5 48 1 9 <unknown> 64 1 9 <unknown> 80 1 9 <unknown> 96 64 9 <unknown> 192 64 9 <unknown>
 261      20312039 
 261      203C756E 
 261      6B6E6F77 
 261      6E3E2036 
 262 00ba 00000000 		.align 32
 262      0000
 263              	.LC2:
 264 00c0 00       		.string	""
 265 00c1 00000000 		.zero	63
 265      00000000 
 265      00000000 
 265      00000000 
 265      00000000 
 266              		.text
 267              		.globl	_Z10date_thingNSt7__cxx1112basic_stringIcSt11char_traitsIcESaIcEEE
 269              	_Z10date_thingNSt7__cxx1112basic_stringIcSt11char_traitsIcESaIcEEE:
 270              	.LASANPC2343:
 271              	.LFB2343:
 272              		.file 3 "/home/arkel/c++/wordle/files/update_word_list.cpp"
   1:/home/arkel/c++/wordle/files/update_word_list.cpp **** #include <fstream>
   2:/home/arkel/c++/wordle/files/update_word_list.cpp **** #include <string>
   3:/home/arkel/c++/wordle/files/update_word_list.cpp **** #include <vector>
   4:/home/arkel/c++/wordle/files/update_word_list.cpp **** 
   5:/home/arkel/c++/wordle/files/update_word_list.cpp **** // just put a * at the end of the word to be removed & it will be removed
   6:/home/arkel/c++/wordle/files/update_word_list.cpp **** 
   7:/home/arkel/c++/wordle/files/update_word_list.cpp **** std::vector<std::string> date_thing(std::string line) {
 273              		.loc 3 7 55
 274              		.cfi_startproc
 275              		.cfi_personality 0x9b,DW.ref.__gxx_personality_v0
 276              		.cfi_lsda 0x1b,.LLSDA2343
 277 0000 F30F1EFA 		endbr64
 278 0004 55       		pushq	%rbp
 279              		.cfi_def_cfa_offset 16
 280              		.cfi_offset 6, -16
 281 0005 4889E5   		movq	%rsp, %rbp
 282              		.cfi_def_cfa_register 6
 283 0008 4157     		pushq	%r15
 284 000a 4156     		pushq	%r14
 285 000c 4155     		pushq	%r13
 286 000e 4154     		pushq	%r12
 287 0010 53       		pushq	%rbx
 288 0011 4881EC88 		subq	$392, %rsp
 288      010000
 289              		.cfi_offset 15, -24
 290              		.cfi_offset 14, -32
 291              		.cfi_offset 13, -40
 292              		.cfi_offset 12, -48
 293              		.cfi_offset 3, -56
 294 0018 4889BD78 		movq	%rdi, -392(%rbp)
 294      FEFFFF
 295 001f 4889B570 		movq	%rsi, -400(%rbp)
 295      FEFFFF
 296 0026 4C8DAD90 		leaq	-368(%rbp), %r13
 296      FEFFFF
 297 002d 4C89AD60 		movq	%r13, -416(%rbp)
 297      FEFFFF
 298 0034 833D0000 		cmpl	$0, __asan_option_detect_stack_use_after_return(%rip)
 298      000000
 299 003b 7412     		je	.L9
 300 003d BF200100 		movl	$288, %edi
 300      00
 301 0042 E8000000 		call	__asan_stack_malloc_3@PLT
 301      00
 302              	.LVL0:
 303 0047 4885C0   		testq	%rax, %rax
 304 004a 7403     		je	.L9
 305 004c 4989C5   		movq	%rax, %r13
 306              	.L9:
 307 004f 498D8540 		leaq	320(%r13), %rax
 307      010000
 308 0056 4889C3   		movq	%rax, %rbx
 309 0059 49C74500 		movq	$1102416563, 0(%r13)
 309      B38AB541 
 310 0061 488D0500 		leaq	.LC1(%rip), %rax
 310      000000
 311 0068 49894508 		movq	%rax, 8(%r13)
 312 006c 488D058D 		leaq	.LASANPC2343(%rip), %rax
 312      FFFFFF
 313 0073 49894510 		movq	%rax, 16(%r13)
 314 0077 4D89EC   		movq	%r13, %r12
 315 007a 49C1EC03 		shrq	$3, %r12
 316 007e 41C78424 		movl	$-235802127, 2147450880(%r12)
 316      0080FF7F 
 316      F1F1F1F1 
 317 008a 41C78424 		movl	$-234753551, 2147450884(%r12)
 317      0480FF7F 
 317      F1F101F2 
 318 0096 41C78424 		movl	$-234753535, 2147450888(%r12)
 318      0880FF7F 
 318      01F201F2 
 319 00a2 41C78424 		movl	$-218959118, 2147450900(%r12)
 319      1480FF7F 
 319      F2F2F2F2 
 320 00ae 41C78424 		movl	$-202116109, 2147450912(%r12)
 320      2080FF7F 
 320      F3F3F3F3 
 321              		.loc 3 7 55
 322 00ba 64488B04 		movq	%fs:40, %rax
 322      25280000 
 322      00
 323 00c3 488945C8 		movq	%rax, -56(%rbp)
 324 00c7 31C0     		xorl	%eax, %eax
   8:/home/arkel/c++/wordle/files/update_word_list.cpp ****   size_t i = line.size() - 1;
 325              		.loc 3 8 23
 326 00c9 488B8570 		movq	-400(%rbp), %rax
 326      FEFFFF
 327 00d0 4889C7   		movq	%rax, %rdi
 328 00d3 E8000000 		call	_ZNKSt7__cxx1112basic_stringIcSt11char_traitsIcESaIcEE4sizeEv@PLT
 328      00
 329              		.loc 3 8 28
 330 00d8 4883E801 		subq	$1, %rax
 331 00dc 48898588 		movq	%rax, -376(%rbp)
 331      FEFFFF
 332              	.L25:
   9:/home/arkel/c++/wordle/files/update_word_list.cpp ****   for (;; --i) {
  10:/home/arkel/c++/wordle/files/update_word_list.cpp ****     if (line[i] == ' ') break;
 333              		.loc 3 10 15
 334 00e3 488B9588 		movq	-376(%rbp), %rdx
 334      FEFFFF
 335 00ea 488B8570 		movq	-400(%rbp), %rax
 335      FEFFFF
 336 00f1 4889D6   		movq	%rdx, %rsi
 337 00f4 4889C7   		movq	%rax, %rdi
 338              	.LEHB0:
 339 00f7 E8000000 		call	_ZNSt7__cxx1112basic_stringIcSt11char_traitsIcESaIcEEixEm@PLT
 339      00
 340 00fc 48898568 		movq	%rax, -408(%rbp)
 340      FEFFFF
 341              		.loc 3 10 17
 342 0103 4885C0   		testq	%rax, %rax
 343 0106 7511     		jne	.L13
 344 0108 BE000000 		movl	$0, %esi
 344      00
 345 010d 488D3D00 		leaq	.Lubsan_data374(%rip), %rdi
 345      000000
 346 0114 E8000000 		call	__ubsan_handle_type_mismatch_v1@PLT
 346      00
 347              	.L13:
 348 0119 488B8568 		movq	-408(%rbp), %rax
 348      FEFFFF
 349 0120 4889C2   		movq	%rax, %rdx
 350 0123 48C1EA03 		shrq	$3, %rdx
 351 0127 4881C200 		addq	$2147450880, %rdx
 351      80FF7F
 352 012e 0FB612   		movzbl	(%rdx), %edx
 353 0131 84D2     		testb	%dl, %dl
 354 0133 0F95C1   		setne	%cl
 355 0136 4889C6   		movq	%rax, %rsi
 356 0139 83E607   		andl	$7, %esi
 357 013c 4038D6   		cmpb	%dl, %sil
 358 013f 0F9DC2   		setge	%dl
 359 0142 21CA     		andl	%ecx, %edx
 360 0144 84D2     		testb	%dl, %dl
 361 0146 7408     		je	.L14
 362 0148 4889C7   		movq	%rax, %rdi
 363 014b E8000000 		call	__asan_report_load1@PLT
 363      00
 364              	.L14:
 365 0150 488B8568 		movq	-408(%rbp), %rax
 365      FEFFFF
 366 0157 0FB600   		movzbl	(%rax), %eax
 367 015a 3C20     		cmpb	$32, %al
 368 015c 0F94C0   		sete	%al
 369              		.loc 3 10 5
 370 015f 84C0     		testb	%al, %al
 371 0161 0F85A401 		jne	.L53
 371      0000
  11:/home/arkel/c++/wordle/files/update_word_list.cpp ****     if (i == 0) return {line, ""};
 372              		.loc 3 11 5
 373 0167 4883BD88 		cmpq	$0, -376(%rbp)
 373      FEFFFF00 
 374 016f 0F858901 		jne	.L17
 374      0000
 375              		.loc 3 11 33 discriminator 1
 376 0175 488B9570 		movq	-400(%rbp), %rdx
 376      FEFFFF
 377 017c 488D8320 		leaq	-224(%rbx), %rax
 377      FFFFFF
 378 0183 4889D6   		movq	%rdx, %rsi
 379 0186 4889C7   		movq	%rax, %rdi
 380 0189 E8000000 		call	_ZNSt7__cxx1112basic_stringIcSt11char_traitsIcESaIcEEC1ERKS4_@PLT
 380      00
 381              	.LEHE0:
 382 018e 488D83F0 		leaq	-272(%rbx), %rax
 382      FEFFFF
 383 0195 4889C7   		movq	%rax, %rdi
 384 0198 E8000000 		call	_ZNSaIcEC1Ev@PLT
 384      00
 385 019d 488D83F0 		leaq	-272(%rbx), %rax
 385      FEFFFF
 386 01a4 488D9320 		leaq	-224(%rbx), %rdx
 386      FFFFFF
 387 01ab 488D4A20 		leaq	32(%rdx), %rcx
 388 01af 4889C2   		movq	%rax, %rdx
 389 01b2 488D3500 		leaq	.LC2(%rip), %rsi
 389      000000
 390 01b9 4889CF   		movq	%rcx, %rdi
 391              	.LEHB1:
 392 01bc E8000000 		call	_ZNSt7__cxx1112basic_stringIcSt11char_traitsIcESaIcEEC1IS3_EEPKcRKS3_
 392      00
 393              	.LEHE1:
 394              		.loc 3 11 33 is_stmt 0 discriminator 3
 395 01c1 488D8320 		leaq	-224(%rbx), %rax
 395      FFFFFF
 396 01c8 48898550 		movq	%rax, -432(%rbp)
 396      FEFFFF
 397 01cf 48C78558 		movq	$2, -424(%rbp)
 397      FEFFFF02 
 397      000000
 398 01da 488D8300 		leaq	-256(%rbx), %rax
 398      FFFFFF
 399 01e1 4889C7   		movq	%rax, %rdi
 400 01e4 E8000000 		call	_ZNSaINSt7__cxx1112basic_stringIcSt11char_traitsIcESaIcEEEEC1Ev
 400      00
 401 01e9 488D9300 		leaq	-256(%rbx), %rdx
 401      FFFFFF
 402 01f0 488BB550 		movq	-432(%rbp), %rsi
 402      FEFFFF
 403 01f7 488BBD58 		movq	-424(%rbp), %rdi
 403      FEFFFF
 404 01fe 4989F0   		movq	%rsi, %r8
 405 0201 4989F9   		movq	%rdi, %r9
 406 0204 488B8578 		movq	-392(%rbp), %rax
 406      FEFFFF
 407 020b 4889D1   		movq	%rdx, %rcx
 408 020e 4C89C6   		movq	%r8, %rsi
 409 0211 4889FA   		movq	%rdi, %rdx
 410 0214 4889C7   		movq	%rax, %rdi
 411              	.LEHB2:
 412 0217 E8000000 		call	_ZNSt6vectorINSt7__cxx1112basic_stringIcSt11char_traitsIcESaIcEEESaIS5_EEC1ESt16initializer_l
 412      00
 413              	.LEHE2:
 414              		.loc 3 11 33
 415 021c 488D8300 		leaq	-256(%rbx), %rax
 415      FFFFFF
 416 0223 4889C7   		movq	%rax, %rdi
 417 0226 E8000000 		call	_ZNSaINSt7__cxx1112basic_stringIcSt11char_traitsIcESaIcEEEED1Ev
 417      00
 418 022b 488D8300 		leaq	-256(%rbx), %rax
 418      FFFFFF
 419 0232 48C1E803 		shrq	$3, %rax
 420 0236 48050080 		addq	$2147450880, %rax
 420      FF7F
 421 023c C600F8   		movb	$-8, (%rax)
 422 023f 488D8320 		leaq	-224(%rbx), %rax
 422      FFFFFF
 423 0246 488D5040 		leaq	64(%rax), %rdx
 424 024a 4883F8C0 		cmpq	$-64, %rax
 425 024e 7216     		jb	.L18
 426 0250 488D8320 		leaq	-224(%rbx), %rax
 426      FFFFFF
 427 0257 4889C6   		movq	%rax, %rsi
 428 025a 488D3D00 		leaq	.Lubsan_data375(%rip), %rdi
 428      000000
 429 0261 E8000000 		call	__ubsan_handle_pointer_overflow@PLT
 429      00
 430              	.L18:
 431 0266 4C8DB320 		leaq	-224(%rbx), %r14
 431      FFFFFF
 432 026d 4983C640 		addq	$64, %r14
 433              	.L23:
 434              		.loc 3 11 33 discriminator 9
 435 0271 488D8320 		leaq	-224(%rbx), %rax
 435      FFFFFF
 436 0278 4939C6   		cmpq	%rax, %r14
 437 027b 744F     		je	.L19
 438              		.loc 3 11 33 discriminator 8
 439 027d 4C89F2   		movq	%r14, %rdx
 440 0280 488D42E0 		leaq	-32(%rdx), %rax
 441 0284 4883FA20 		cmpq	$32, %rdx
 442 0288 7312     		jnb	.L20
 443              		.loc 3 11 33
 444 028a 4889C2   		movq	%rax, %rdx
 445 028d 4C89F6   		movq	%r14, %rsi
 446 0290 488D3D00 		leaq	.Lubsan_data376(%rip), %rdi
 446      000000
 447 0297 E8000000 		call	__ubsan_handle_pointer_overflow@PLT
 447      00
 448              	.L20:
 449              		.loc 3 11 33 discriminator 8
 450 029c 4983EE20 		subq	$32, %r14
 451 02a0 4C89F0   		movq	%r14, %rax
 452 02a3 4D85F6   		testq	%r14, %r14
 453 02a6 740B     		je	.L21
 454 02a8 4889C2   		movq	%rax, %rdx
 455 02ab 83E207   		andl	$7, %edx
 456 02ae 4885D2   		testq	%rdx, %rdx
 457 02b1 740F     		je	.L22
 458              	.L21:
 459              		.loc 3 11 33
 460 02b3 4889C6   		movq	%rax, %rsi
 461 02b6 488D3D00 		leaq	.Lubsan_data377(%rip), %rdi
 461      000000
 462 02bd E8000000 		call	__ubsan_handle_type_mismatch_v1@PLT
 462      00
 463              	.L22:
 464              		.loc 3 11 33 discriminator 8
 465 02c2 4C89F7   		movq	%r14, %rdi
 466 02c5 E8000000 		call	_ZNSt7__cxx1112basic_stringIcSt11char_traitsIcESaIcEED1Ev@PLT
 466      00
 467 02ca EBA5     		jmp	.L23
 468              	.L19:
 469              		.loc 3 11 33
 470 02cc 488D8320 		leaq	-224(%rbx), %rax
 470      FFFFFF
 471 02d3 48C1E803 		shrq	$3, %rax
 472 02d7 48050080 		addq	$2147450880, %rax
 472      FF7F
 473 02dd C700F8F8 		movl	$-117901064, (%rax)
 473      F8F8
 474 02e3 C74004F8 		movl	$-117901064, 4(%rax)
 474      F8F8F8
 475 02ea 488D83F0 		leaq	-272(%rbx), %rax
 475      FEFFFF
 476 02f1 4889C7   		movq	%rax, %rdi
 477 02f4 E8000000 		call	_ZNSaIcED1Ev@PLT
 477      00
 478 02f9 E9EE0300 		jmp	.L12
 478      00
 479              	.L17:
   9:/home/arkel/c++/wordle/files/update_word_list.cpp ****   for (;; --i) {
 480              		.loc 3 9 3 is_stmt 1
 481 02fe 4883AD88 		subq	$1, -376(%rbp)
 481      FEFFFF01 
  10:/home/arkel/c++/wordle/files/update_word_list.cpp ****     if (i == 0) return {line, ""};
 482              		.loc 3 10 5
 483 0306 E9D8FDFF 		jmp	.L25
 483      FF
 484              	.L53:
  10:/home/arkel/c++/wordle/files/update_word_list.cpp ****     if (i == 0) return {line, ""};
 485              		.loc 3 10 25
 486 030b 90       		nop
  12:/home/arkel/c++/wordle/files/update_word_list.cpp ****   }
  13:/home/arkel/c++/wordle/files/update_word_list.cpp ****   return {line.substr(0, i), line.substr(i + 1, line.size() - 1)};
 487              		.loc 3 13 65
 488 030c 488D4380 		leaq	-128(%rbx), %rax
 489 0310 4889C2   		movq	%rax, %rdx
 490 0313 48C1EA03 		shrq	$3, %rdx
 491 0317 4881C200 		addq	$2147450880, %rdx
 491      80FF7F
 492 031e 0FB612   		movzbl	(%rdx), %edx
 493 0321 84D2     		testb	%dl, %dl
 494 0323 0F95C1   		setne	%cl
 495 0326 84D2     		testb	%dl, %dl
 496 0328 0F9EC2   		setle	%dl
 497 032b 21D1     		andl	%edx, %ecx
 498 032d 89CF     		movl	%ecx, %edi
 499 032f BA200000 		movl	$32, %edx
 499      00
 500 0334 4883EA01 		subq	$1, %rdx
 501 0338 488D0C10 		leaq	(%rax,%rdx), %rcx
 502 033c 4889CA   		movq	%rcx, %rdx
 503 033f 48C1EA03 		shrq	$3, %rdx
 504 0343 4881C200 		addq	$2147450880, %rdx
 504      80FF7F
 505 034a 0FB612   		movzbl	(%rdx), %edx
 506 034d 84D2     		testb	%dl, %dl
 507 034f 400F95C6 		setne	%sil
 508 0353 83E107   		andl	$7, %ecx
 509 0356 38D1     		cmpb	%dl, %cl
 510 0358 0F9DC2   		setge	%dl
 511 035b 21F2     		andl	%esi, %edx
 512 035d 09FA     		orl	%edi, %edx
 513 035f 84D2     		testb	%dl, %dl
 514 0361 740D     		je	.L26
 515 0363 BE200000 		movl	$32, %esi
 515      00
 516 0368 4889C7   		movq	%rax, %rdi
 517 036b E8000000 		call	__asan_report_store_n@PLT
 517      00
 518              	.L26:
 519 0370 488D4380 		leaq	-128(%rbx), %rax
 520 0374 488B9588 		movq	-376(%rbp), %rdx
 520      FEFFFF
 521 037b 488BB570 		movq	-400(%rbp), %rsi
 521      FEFFFF
 522 0382 4889D1   		movq	%rdx, %rcx
 523 0385 BA000000 		movl	$0, %edx
 523      00
 524 038a 4889C7   		movq	%rax, %rdi
 525              	.LEHB3:
 526 038d E8000000 		call	_ZNKSt7__cxx1112basic_stringIcSt11char_traitsIcESaIcEE6substrEmm@PLT
 526      00
 527              		.loc 3 13 58
 528 0392 488B8570 		movq	-400(%rbp), %rax
 528      FEFFFF
 529 0399 4889C7   		movq	%rax, %rdi
 530 039c E8000000 		call	_ZNKSt7__cxx1112basic_stringIcSt11char_traitsIcESaIcEE4sizeEv@PLT
 530      00
 531              		.loc 3 13 65
 532 03a1 4C8D40FF 		leaq	-1(%rax), %r8
 533 03a5 488B8588 		movq	-376(%rbp), %rax
 533      FEFFFF
 534 03ac 488D7801 		leaq	1(%rax), %rdi
 535 03b0 488D4380 		leaq	-128(%rbx), %rax
 536 03b4 4883C020 		addq	$32, %rax
 537 03b8 4889C2   		movq	%rax, %rdx
 538 03bb 48C1EA03 		shrq	$3, %rdx
 539 03bf 4881C200 		addq	$2147450880, %rdx
 539      80FF7F
 540 03c6 0FB612   		movzbl	(%rdx), %edx
 541 03c9 84D2     		testb	%dl, %dl
 542 03cb 0F95C1   		setne	%cl
 543 03ce 84D2     		testb	%dl, %dl
 544 03d0 0F9EC2   		setle	%dl
 545 03d3 21D1     		andl	%edx, %ecx
 546 03d5 4189C9   		movl	%ecx, %r9d
 547 03d8 BA200000 		movl	$32, %edx
 547      00
 548 03dd 4883EA01 		subq	$1, %rdx
 549 03e1 488D0C10 		leaq	(%rax,%rdx), %rcx
 550 03e5 4889CA   		movq	%rcx, %rdx
 551 03e8 48C1EA03 		shrq	$3, %rdx
 552 03ec 4881C200 		addq	$2147450880, %rdx
 552      80FF7F
 553 03f3 0FB612   		movzbl	(%rdx), %edx
 554 03f6 84D2     		testb	%dl, %dl
 555 03f8 400F95C6 		setne	%sil
 556 03fc 83E107   		andl	$7, %ecx
 557 03ff 38D1     		cmpb	%dl, %cl
 558 0401 0F9DC2   		setge	%dl
 559 0404 21F2     		andl	%esi, %edx
 560 0406 4409CA   		orl	%r9d, %edx
 561 0409 84D2     		testb	%dl, %dl
 562 040b 740D     		je	.L27
 563 040d BE200000 		movl	$32, %esi
 563      00
 564 0412 4889C7   		movq	%rax, %rdi
 565 0415 E8000000 		call	__asan_report_store_n@PLT
 565      00
 566              	.L27:
 567 041a 488D43A0 		leaq	-96(%rbx), %rax
 568 041e 488BB570 		movq	-400(%rbp), %rsi
 568      FEFFFF
 569 0425 4C89C1   		movq	%r8, %rcx
 570 0428 4889FA   		movq	%rdi, %rdx
 571 042b 4889C7   		movq	%rax, %rdi
 572 042e E8000000 		call	_ZNKSt7__cxx1112basic_stringIcSt11char_traitsIcESaIcEE6substrEmm@PLT
 572      00
 573              	.LEHE3:
 574 0433 488D4380 		leaq	-128(%rbx), %rax
 575 0437 4989C6   		movq	%rax, %r14
 576 043a 41BF0200 		movl	$2, %r15d
 576      0000
 577 0440 488D8310 		leaq	-240(%rbx), %rax
 577      FFFFFF
 578 0447 4889C7   		movq	%rax, %rdi
 579 044a E8000000 		call	_ZNSaINSt7__cxx1112basic_stringIcSt11char_traitsIcESaIcEEEEC1Ev
 579      00
 580 044f 488D9310 		leaq	-240(%rbx), %rdx
 580      FFFFFF
 581 0456 4D89F0   		movq	%r14, %r8
 582 0459 4D89F9   		movq	%r15, %r9
 583 045c 4C89F6   		movq	%r14, %rsi
 584 045f 4C89FF   		movq	%r15, %rdi
 585 0462 488B8578 		movq	-392(%rbp), %rax
 585      FEFFFF
 586 0469 4889D1   		movq	%rdx, %rcx
 587 046c 4C89C6   		movq	%r8, %rsi
 588 046f 4889FA   		movq	%rdi, %rdx
 589 0472 4889C7   		movq	%rax, %rdi
 590              	.LEHB4:
 591 0475 E8000000 		call	_ZNSt6vectorINSt7__cxx1112basic_stringIcSt11char_traitsIcESaIcEEESaIS5_EEC1ESt16initializer_l
 591      00
 592              	.LEHE4:
 593 047a 488D8310 		leaq	-240(%rbx), %rax
 593      FFFFFF
 594 0481 4889C7   		movq	%rax, %rdi
 595 0484 E8000000 		call	_ZNSaINSt7__cxx1112basic_stringIcSt11char_traitsIcESaIcEEEED1Ev
 595      00
 596 0489 488D8310 		leaq	-240(%rbx), %rax
 596      FFFFFF
 597 0490 48C1E803 		shrq	$3, %rax
 598 0494 48050080 		addq	$2147450880, %rax
 598      FF7F
 599 049a C600F8   		movb	$-8, (%rax)
 600 049d 488D4380 		leaq	-128(%rbx), %rax
 601 04a1 488D5040 		leaq	64(%rax), %rdx
 602 04a5 4883F8C0 		cmpq	$-64, %rax
 603 04a9 7213     		jb	.L28
 604 04ab 488D4380 		leaq	-128(%rbx), %rax
 605 04af 4889C6   		movq	%rax, %rsi
 606 04b2 488D3D00 		leaq	.Lubsan_data378(%rip), %rdi
 606      000000
 607 04b9 E8000000 		call	__ubsan_handle_pointer_overflow@PLT
 607      00
 608              	.L28:
 609 04be 4C8D7380 		leaq	-128(%rbx), %r14
 610 04c2 4983C640 		addq	$64, %r14
 611              	.L32:
 612              		.loc 3 13 65 is_stmt 0 discriminator 6
 613 04c6 488D4380 		leaq	-128(%rbx), %rax
 614 04ca 4939C6   		cmpq	%rax, %r14
 615 04cd 0F841902 		je	.L12
 615      0000
 616              		.loc 3 13 65 discriminator 5
 617 04d3 4C89F2   		movq	%r14, %rdx
 618 04d6 488D42E0 		leaq	-32(%rdx), %rax
 619 04da 4883FA20 		cmpq	$32, %rdx
 620 04de 7312     		jnb	.L29
 621              		.loc 3 13 65
 622 04e0 4889C2   		movq	%rax, %rdx
 623 04e3 4C89F6   		movq	%r14, %rsi
 624 04e6 488D3D00 		leaq	.Lubsan_data379(%rip), %rdi
 624      000000
 625 04ed E8000000 		call	__ubsan_handle_pointer_overflow@PLT
 625      00
 626              	.L29:
 627              		.loc 3 13 65 discriminator 5
 628 04f2 4983EE20 		subq	$32, %r14
 629 04f6 4C89F0   		movq	%r14, %rax
 630 04f9 4D85F6   		testq	%r14, %r14
 631 04fc 740B     		je	.L30
 632 04fe 4889C2   		movq	%rax, %rdx
 633 0501 83E207   		andl	$7, %edx
 634 0504 4885D2   		testq	%rdx, %rdx
 635 0507 740F     		je	.L31
 636              	.L30:
 637              		.loc 3 13 65
 638 0509 4889C6   		movq	%rax, %rsi
 639 050c 488D3D00 		leaq	.Lubsan_data380(%rip), %rdi
 639      000000
 640 0513 E8000000 		call	__ubsan_handle_type_mismatch_v1@PLT
 640      00
 641              	.L31:
 642              		.loc 3 13 65 discriminator 5
 643 0518 4C89F7   		movq	%r14, %rdi
 644 051b E8000000 		call	_ZNSt7__cxx1112basic_stringIcSt11char_traitsIcESaIcEED1Ev@PLT
 644      00
 645 0520 EBA4     		jmp	.L32
 646              	.L50:
 647 0522 F30F1EFA 		endbr64
 648 0526 4989C4   		movq	%rax, %r12
  11:/home/arkel/c++/wordle/files/update_word_list.cpp ****   }
 649              		.loc 3 11 33 is_stmt 1
 650 0529 488D8300 		leaq	-256(%rbx), %rax
 650      FFFFFF
 651 0530 4889C7   		movq	%rax, %rdi
 652 0533 E8000000 		call	_ZNSaINSt7__cxx1112basic_stringIcSt11char_traitsIcESaIcEEEED1Ev
 652      00
 653 0538 4C89E2   		movq	%r12, %rdx
 654 053b 488D8300 		leaq	-256(%rbx), %rax
 654      FFFFFF
 655 0542 48C1E803 		shrq	$3, %rax
 656 0546 48050080 		addq	$2147450880, %rax
 656      FF7F
 657 054c C600F8   		movb	$-8, (%rax)
 658 054f 4989D5   		movq	%rdx, %r13
 659 0552 488D8320 		leaq	-224(%rbx), %rax
 659      FFFFFF
 660 0559 488D5040 		leaq	64(%rax), %rdx
 661 055d 4883F8C0 		cmpq	$-64, %rax
 662 0561 7216     		jb	.L34
 663 0563 488D8320 		leaq	-224(%rbx), %rax
 663      FFFFFF
 664 056a 4889C6   		movq	%rax, %rsi
 665 056d 488D3D00 		leaq	.Lubsan_data381(%rip), %rdi
 665      000000
 666 0574 E8000000 		call	__ubsan_handle_pointer_overflow@PLT
 666      00
 667              	.L34:
 668 0579 4C8DA320 		leaq	-224(%rbx), %r12
 668      FFFFFF
 669 0580 4983C440 		addq	$64, %r12
 670              	.L39:
  11:/home/arkel/c++/wordle/files/update_word_list.cpp ****   }
 671              		.loc 3 11 33 is_stmt 0 discriminator 14
 672 0584 488D8320 		leaq	-224(%rbx), %rax
 672      FFFFFF
 673 058b 4939C4   		cmpq	%rax, %r12
 674 058e 744F     		je	.L35
  11:/home/arkel/c++/wordle/files/update_word_list.cpp ****   }
 675              		.loc 3 11 33 discriminator 13
 676 0590 4C89E2   		movq	%r12, %rdx
 677 0593 488D42E0 		leaq	-32(%rdx), %rax
 678 0597 4883FA20 		cmpq	$32, %rdx
 679 059b 7312     		jnb	.L36
  11:/home/arkel/c++/wordle/files/update_word_list.cpp ****   }
 680              		.loc 3 11 33
 681 059d 4889C2   		movq	%rax, %rdx
 682 05a0 4C89E6   		movq	%r12, %rsi
 683 05a3 488D3D00 		leaq	.Lubsan_data382(%rip), %rdi
 683      000000
 684 05aa E8000000 		call	__ubsan_handle_pointer_overflow@PLT
 684      00
 685              	.L36:
  11:/home/arkel/c++/wordle/files/update_word_list.cpp ****   }
 686              		.loc 3 11 33 discriminator 13
 687 05af 4983EC20 		subq	$32, %r12
 688 05b3 4C89E0   		movq	%r12, %rax
 689 05b6 4D85E4   		testq	%r12, %r12
 690 05b9 740B     		je	.L37
 691 05bb 4889C2   		movq	%rax, %rdx
 692 05be 83E207   		andl	$7, %edx
 693 05c1 4885D2   		testq	%rdx, %rdx
 694 05c4 740F     		je	.L38
 695              	.L37:
  11:/home/arkel/c++/wordle/files/update_word_list.cpp ****   }
 696              		.loc 3 11 33
 697 05c6 4889C6   		movq	%rax, %rsi
 698 05c9 488D3D00 		leaq	.Lubsan_data383(%rip), %rdi
 698      000000
 699 05d0 E8000000 		call	__ubsan_handle_type_mismatch_v1@PLT
 699      00
 700              	.L38:
  11:/home/arkel/c++/wordle/files/update_word_list.cpp ****   }
 701              		.loc 3 11 33 discriminator 13
 702 05d5 4C89E7   		movq	%r12, %rdi
 703 05d8 E8000000 		call	_ZNSt7__cxx1112basic_stringIcSt11char_traitsIcESaIcEED1Ev@PLT
 703      00
 704 05dd EBA5     		jmp	.L39
 705              	.L35:
 706 05df 4C89EA   		movq	%r13, %rdx
  11:/home/arkel/c++/wordle/files/update_word_list.cpp ****   }
 707              		.loc 3 11 33
 708 05e2 488D8320 		leaq	-224(%rbx), %rax
 708      FFFFFF
 709 05e9 48C1E803 		shrq	$3, %rax
 710 05ed 48050080 		addq	$2147450880, %rax
 710      FF7F
 711 05f3 C700F8F8 		movl	$-117901064, (%rax)
 711      F8F8
 712 05f9 C74004F8 		movl	$-117901064, 4(%rax)
 712      F8F8F8
 713 0600 4989D4   		movq	%rdx, %r12
 714 0603 EB07     		jmp	.L40
 715              	.L49:
 716 0605 F30F1EFA 		endbr64
 717 0609 4989C4   		movq	%rax, %r12
 718              	.L40:
  11:/home/arkel/c++/wordle/files/update_word_list.cpp ****   }
 719              		.loc 3 11 33 discriminator 2
 720 060c 488D83F0 		leaq	-272(%rbx), %rax
 720      FEFFFF
 721 0613 4889C7   		movq	%rax, %rdi
 722 0616 E8000000 		call	_ZNSaIcED1Ev@PLT
 722      00
 723 061b 4C89E3   		movq	%r12, %rbx
 724 061e E8000000 		call	__asan_handle_no_return@PLT
 724      00
 725 0623 4889DF   		movq	%rbx, %rdi
 726              	.LEHB5:
 727 0626 E8000000 		call	_Unwind_Resume@PLT
 727      00
 728              	.L51:
 729 062b F30F1EFA 		endbr64
 730 062f 4989C4   		movq	%rax, %r12
 731              		.loc 3 13 65 is_stmt 1
 732 0632 488D8310 		leaq	-240(%rbx), %rax
 732      FFFFFF
 733 0639 4889C7   		movq	%rax, %rdi
 734 063c E8000000 		call	_ZNSaINSt7__cxx1112basic_stringIcSt11char_traitsIcESaIcEEEED1Ev
 734      00
 735 0641 4C89E2   		movq	%r12, %rdx
 736 0644 488D8310 		leaq	-240(%rbx), %rax
 736      FFFFFF
 737 064b 48C1E803 		shrq	$3, %rax
 738 064f 48050080 		addq	$2147450880, %rax
 738      FF7F
 739 0655 C600F8   		movb	$-8, (%rax)
 740 0658 4989D5   		movq	%rdx, %r13
 741 065b 488D4380 		leaq	-128(%rbx), %rax
 742 065f 488D5040 		leaq	64(%rax), %rdx
 743 0663 4883F8C0 		cmpq	$-64, %rax
 744 0667 7213     		jb	.L42
 745 0669 488D4380 		leaq	-128(%rbx), %rax
 746 066d 4889C6   		movq	%rax, %rsi
 747 0670 488D3D00 		leaq	.Lubsan_data384(%rip), %rdi
 747      000000
 748 0677 E8000000 		call	__ubsan_handle_pointer_overflow@PLT
 748      00
 749              	.L42:
 750 067c 4C8D6380 		leaq	-128(%rbx), %r12
 751 0680 4983C440 		addq	$64, %r12
 752              	.L47:
 753              		.loc 3 13 65 is_stmt 0 discriminator 9
 754 0684 488D4380 		leaq	-128(%rbx), %rax
 755 0688 4939C4   		cmpq	%rax, %r12
 756 068b 744F     		je	.L43
 757              		.loc 3 13 65 discriminator 8
 758 068d 4C89E2   		movq	%r12, %rdx
 759 0690 488D42E0 		leaq	-32(%rdx), %rax
 760 0694 4883FA20 		cmpq	$32, %rdx
 761 0698 7312     		jnb	.L44
 762              		.loc 3 13 65
 763 069a 4889C2   		movq	%rax, %rdx
 764 069d 4C89E6   		movq	%r12, %rsi
 765 06a0 488D3D00 		leaq	.Lubsan_data385(%rip), %rdi
 765      000000
 766 06a7 E8000000 		call	__ubsan_handle_pointer_overflow@PLT
 766      00
 767              	.L44:
 768              		.loc 3 13 65 discriminator 8
 769 06ac 4983EC20 		subq	$32, %r12
 770 06b0 4C89E0   		movq	%r12, %rax
 771 06b3 4D85E4   		testq	%r12, %r12
 772 06b6 740B     		je	.L45
 773 06b8 4889C2   		movq	%rax, %rdx
 774 06bb 83E207   		andl	$7, %edx
 775 06be 4885D2   		testq	%rdx, %rdx
 776 06c1 740F     		je	.L46
 777              	.L45:
 778              		.loc 3 13 65
 779 06c3 4889C6   		movq	%rax, %rsi
 780 06c6 488D3D00 		leaq	.Lubsan_data386(%rip), %rdi
 780      000000
 781 06cd E8000000 		call	__ubsan_handle_type_mismatch_v1@PLT
 781      00
 782              	.L46:
 783              		.loc 3 13 65 discriminator 8
 784 06d2 4C89E7   		movq	%r12, %rdi
 785 06d5 E8000000 		call	_ZNSt7__cxx1112basic_stringIcSt11char_traitsIcESaIcEED1Ev@PLT
 785      00
 786 06da EBA8     		jmp	.L47
 787              	.L43:
 788 06dc 4C89EB   		movq	%r13, %rbx
 789 06df E8000000 		call	__asan_handle_no_return@PLT
 789      00
 790 06e4 4889DF   		movq	%rbx, %rdi
 791 06e7 E8000000 		call	_Unwind_Resume@PLT
 791      00
 792              	.LEHE5:
 793              	.L12:
   7:/home/arkel/c++/wordle/files/update_word_list.cpp ****   size_t i = line.size() - 1;
 794              		.loc 3 7 55 is_stmt 1
 795 06ec 4C39AD60 		cmpq	%r13, -416(%rbp)
 795      FEFFFF
 796 06f3 7454     		je	.L10
 797 06f5 49C74500 		movq	$1172321806, 0(%r13)
 797      0E36E045 
 798 06fd 48B8F5F5 		movabsq	$-723401728380766731, %rax
 798      F5F5F5F5 
 798      F5F5
 799 0707 48BAF5F5 		movabsq	$-723401728380766731, %rdx
 799      F5F5F5F5 
 799      F5F5
 800 0711 49898424 		movq	%rax, 2147450880(%r12)
 800      0080FF7F 
 801 0719 49899424 		movq	%rdx, 2147450888(%r12)
 801      0880FF7F 
 802 0721 49898424 		movq	%rax, 2147450896(%r12)
 802      1080FF7F 
 803 0729 49899424 		movq	%rdx, 2147450904(%r12)
 803      1880FF7F 
 804 0731 41C78424 		movl	$-168430091, 2147450912(%r12)
 804      2080FF7F 
 804      F5F5F5F5 
 805 073d 498B85F8 		movq	504(%r13), %rax
 805      010000
 806 0744 C60000   		movb	$0, (%rax)
 807 0747 EB30     		jmp	.L11
 808              	.L10:
 809 0749 49C78424 		movq	$0, 2147450880(%r12)
 809      0080FF7F 
 809      00000000 
 810 0755 49C78424 		movq	$0, 2147450888(%r12)
 810      0880FF7F 
 810      00000000 
 811 0761 49C78424 		movq	$0, 2147450896(%r12)
 811      1080FF7F 
 811      00000000 
 812 076d 41C78424 		movl	$0, 2147450912(%r12)
 812      2080FF7F 
 812      00000000 
 813              	.L11:
  14:/home/arkel/c++/wordle/files/update_word_list.cpp **** }
 814              		.loc 3 14 1
 815 0779 488B45C8 		movq	-56(%rbp), %rax
 816 077d 64483304 		xorq	%fs:40, %rax
 816      25280000 
 816      00
 817 0786 7405     		je	.L48
 818 0788 E8000000 		call	__stack_chk_fail@PLT
 818      00
 819              	.L48:
 820 078d 488B8578 		movq	-392(%rbp), %rax
 820      FEFFFF
 821 0794 4881C488 		addq	$392, %rsp
 821      010000
 822 079b 5B       		popq	%rbx
 823 079c 415C     		popq	%r12
 824 079e 415D     		popq	%r13
 825 07a0 415E     		popq	%r14
 826 07a2 415F     		popq	%r15
 827 07a4 5D       		popq	%rbp
 828              		.cfi_def_cfa 7, 8
 829 07a5 C3       		ret
 830              		.cfi_endproc
 831              	.LFE2343:
 832              		.globl	__gxx_personality_v0
 833              		.section	.gcc_except_table,"a",@progbits
 834              	.LLSDA2343:
 835 0000 FF       		.byte	0xff
 836 0001 FF       		.byte	0xff
 837 0002 01       		.byte	0x1
 838 0003 24       		.uleb128 .LLSDACSE2343-.LLSDACSB2343
 839              	.LLSDACSB2343:
 840 0004 F701     		.uleb128 .LEHB0-.LFB2343
 841 0006 9701     		.uleb128 .LEHE0-.LEHB0
 842 0008 00       		.uleb128 0
 843 0009 00       		.uleb128 0
 844 000a BC03     		.uleb128 .LEHB1-.LFB2343
 845 000c 05       		.uleb128 .LEHE1-.LEHB1
 846 000d 850C     		.uleb128 .L49-.LFB2343
 847 000f 00       		.uleb128 0
 848 0010 9704     		.uleb128 .LEHB2-.LFB2343
 849 0012 05       		.uleb128 .LEHE2-.LEHB2
 850 0013 A20A     		.uleb128 .L50-.LFB2343
 851 0015 00       		.uleb128 0
 852 0016 8D07     		.uleb128 .LEHB3-.LFB2343
 853 0018 A601     		.uleb128 .LEHE3-.LEHB3
 854 001a 00       		.uleb128 0
 855 001b 00       		.uleb128 0
 856 001c F508     		.uleb128 .LEHB4-.LFB2343
 857 001e 05       		.uleb128 .LEHE4-.LEHB4
 858 001f AB0C     		.uleb128 .L51-.LFB2343
 859 0021 00       		.uleb128 0
 860 0022 A60C     		.uleb128 .LEHB5-.LFB2343
 861 0024 C601     		.uleb128 .LEHE5-.LEHB5
 862 0026 00       		.uleb128 0
 863 0027 00       		.uleb128 0
 864              	.LLSDACSE2343:
 865              		.text
 867              		.data
 868              		.align 32
 871              	.Lubsan_type6:
 874 0084 27737472 		.string	"'struct allocator'"
 874      75637420 
 874      616C6C6F 
 874      6361746F 
 874      722700
 875 0097 00000000 		.zero	41
 875      00000000 
 875      00000000 
 875      00000000 
 875      00000000 
 876              		.section	.rodata
 877              		.align 32
 878              	.LC3:
 879 0100 2F757372 		.string	"/usr/include/c++/9/bits/stl_vector.h"
 879      2F696E63 
 879      6C756465 
 879      2F632B2B 
 879      2F392F62 
 880 0125 00000000 		.zero	59
 880      00000000 
 880      00000000 
 880      00000000 
 880      00000000 
 881              		.section	.data.rel.local
 882              		.align 32
 885              	.Lubsan_data387:
 886 0340 00000000 		.quad	.LC3
 886      00000000 
 887 0348 7D000000 		.long	125
 888 034c 0E000000 		.long	14
 889 0350 00000000 		.quad	.Lubsan_type6
 889      00000000 
 890 0358 00       		.byte	0
 891 0359 04       		.byte	4
 892 035a 00000000 		.zero	6
 892      0000
 893 0360 00000000 		.zero	32
 893      00000000 
 893      00000000 
 893      00000000 
 893      00000000 
 894              		.data
 895              		.align 32
 898              	.Lubsan_type7:
 901 00c4 27737472 		.string	"'struct <unknown>'"
 901      75637420 
 901      3C756E6B 
 901      6E6F776E 
 901      3E2700
 902 00d7 00000000 		.zero	41
 902      00000000 
 902      00000000 
 902      00000000 
 902      00000000 
 903              		.section	.data.rel.local
 904              		.align 32
 907              	.Lubsan_data388:
 908 0380 00000000 		.quad	.LC3
 908      00000000 
 909 0388 7D000000 		.long	125
 910 038c 0E000000 		.long	14
 911 0390 00000000 		.quad	.Lubsan_type7
 911      00000000 
 912 0398 03       		.byte	3
 913 0399 02       		.byte	2
 914 039a 00000000 		.zero	6
 914      0000
 915 03a0 00000000 		.zero	32
 915      00000000 
 915      00000000 
 915      00000000 
 915      00000000 
 916              		.section	.text._ZNSt12_Vector_baseINSt7__cxx1112basic_stringIcSt11char_traitsIcESaIcEEESaIS5_EE12_
 917              		.align 2
 918              		.weak	_ZNSt12_Vector_baseINSt7__cxx1112basic_stringIcSt11char_traitsIcESaIcEEESaIS5_EE12_Vector_im
 920              	_ZNSt12_Vector_baseINSt7__cxx1112basic_stringIcSt11char_traitsIcESaIcEEESaIS5_EE12_Vector_implD2Ev:
 921              	.LASANPC2348:
 922              	.LFB2348:
 923              		.file 4 "/usr/include/c++/9/bits/stl_vector.h"
   1:/usr/include/c++/9/bits/stl_vector.h **** // Vector implementation -*- C++ -*-
   2:/usr/include/c++/9/bits/stl_vector.h **** 
   3:/usr/include/c++/9/bits/stl_vector.h **** // Copyright (C) 2001-2019 Free Software Foundation, Inc.
   4:/usr/include/c++/9/bits/stl_vector.h **** //
   5:/usr/include/c++/9/bits/stl_vector.h **** // This file is part of the GNU ISO C++ Library.  This library is free
   6:/usr/include/c++/9/bits/stl_vector.h **** // software; you can redistribute it and/or modify it under the
   7:/usr/include/c++/9/bits/stl_vector.h **** // terms of the GNU General Public License as published by the
   8:/usr/include/c++/9/bits/stl_vector.h **** // Free Software Foundation; either version 3, or (at your option)
   9:/usr/include/c++/9/bits/stl_vector.h **** // any later version.
  10:/usr/include/c++/9/bits/stl_vector.h **** 
  11:/usr/include/c++/9/bits/stl_vector.h **** // This library is distributed in the hope that it will be useful,
  12:/usr/include/c++/9/bits/stl_vector.h **** // but WITHOUT ANY WARRANTY; without even the implied warranty of
  13:/usr/include/c++/9/bits/stl_vector.h **** // MERCHANTABILITY or FITNESS FOR A PARTICULAR PURPOSE.  See the
  14:/usr/include/c++/9/bits/stl_vector.h **** // GNU General Public License for more details.
  15:/usr/include/c++/9/bits/stl_vector.h **** 
  16:/usr/include/c++/9/bits/stl_vector.h **** // Under Section 7 of GPL version 3, you are granted additional
  17:/usr/include/c++/9/bits/stl_vector.h **** // permissions described in the GCC Runtime Library Exception, version
  18:/usr/include/c++/9/bits/stl_vector.h **** // 3.1, as published by the Free Software Foundation.
  19:/usr/include/c++/9/bits/stl_vector.h **** 
  20:/usr/include/c++/9/bits/stl_vector.h **** // You should have received a copy of the GNU General Public License and
  21:/usr/include/c++/9/bits/stl_vector.h **** // a copy of the GCC Runtime Library Exception along with this program;
  22:/usr/include/c++/9/bits/stl_vector.h **** // see the files COPYING3 and COPYING.RUNTIME respectively.  If not, see
  23:/usr/include/c++/9/bits/stl_vector.h **** // <http://www.gnu.org/licenses/>.
  24:/usr/include/c++/9/bits/stl_vector.h **** 
  25:/usr/include/c++/9/bits/stl_vector.h **** /*
  26:/usr/include/c++/9/bits/stl_vector.h ****  *
  27:/usr/include/c++/9/bits/stl_vector.h ****  * Copyright (c) 1994
  28:/usr/include/c++/9/bits/stl_vector.h ****  * Hewlett-Packard Company
  29:/usr/include/c++/9/bits/stl_vector.h ****  *
  30:/usr/include/c++/9/bits/stl_vector.h ****  * Permission to use, copy, modify, distribute and sell this software
  31:/usr/include/c++/9/bits/stl_vector.h ****  * and its documentation for any purpose is hereby granted without fee,
  32:/usr/include/c++/9/bits/stl_vector.h ****  * provided that the above copyright notice appear in all copies and
  33:/usr/include/c++/9/bits/stl_vector.h ****  * that both that copyright notice and this permission notice appear
  34:/usr/include/c++/9/bits/stl_vector.h ****  * in supporting documentation.  Hewlett-Packard Company makes no
  35:/usr/include/c++/9/bits/stl_vector.h ****  * representations about the suitability of this software for any
  36:/usr/include/c++/9/bits/stl_vector.h ****  * purpose.  It is provided "as is" without express or implied warranty.
  37:/usr/include/c++/9/bits/stl_vector.h ****  *
  38:/usr/include/c++/9/bits/stl_vector.h ****  *
  39:/usr/include/c++/9/bits/stl_vector.h ****  * Copyright (c) 1996
  40:/usr/include/c++/9/bits/stl_vector.h ****  * Silicon Graphics Computer Systems, Inc.
  41:/usr/include/c++/9/bits/stl_vector.h ****  *
  42:/usr/include/c++/9/bits/stl_vector.h ****  * Permission to use, copy, modify, distribute and sell this software
  43:/usr/include/c++/9/bits/stl_vector.h ****  * and its documentation for any purpose is hereby granted without fee,
  44:/usr/include/c++/9/bits/stl_vector.h ****  * provided that the above copyright notice appear in all copies and
  45:/usr/include/c++/9/bits/stl_vector.h ****  * that both that copyright notice and this permission notice appear
  46:/usr/include/c++/9/bits/stl_vector.h ****  * in supporting documentation.  Silicon Graphics makes no
  47:/usr/include/c++/9/bits/stl_vector.h ****  * representations about the suitability of this  software for any
  48:/usr/include/c++/9/bits/stl_vector.h ****  * purpose.  It is provided "as is" without express or implied warranty.
  49:/usr/include/c++/9/bits/stl_vector.h ****  */
  50:/usr/include/c++/9/bits/stl_vector.h **** 
  51:/usr/include/c++/9/bits/stl_vector.h **** /** @file bits/stl_vector.h
  52:/usr/include/c++/9/bits/stl_vector.h ****  *  This is an internal header file, included by other library headers.
  53:/usr/include/c++/9/bits/stl_vector.h ****  *  Do not attempt to use it directly. @headername{vector}
  54:/usr/include/c++/9/bits/stl_vector.h ****  */
  55:/usr/include/c++/9/bits/stl_vector.h **** 
  56:/usr/include/c++/9/bits/stl_vector.h **** #ifndef _STL_VECTOR_H
  57:/usr/include/c++/9/bits/stl_vector.h **** #define _STL_VECTOR_H 1
  58:/usr/include/c++/9/bits/stl_vector.h **** 
  59:/usr/include/c++/9/bits/stl_vector.h **** #include <bits/stl_iterator_base_funcs.h>
  60:/usr/include/c++/9/bits/stl_vector.h **** #include <bits/functexcept.h>
  61:/usr/include/c++/9/bits/stl_vector.h **** #include <bits/concept_check.h>
  62:/usr/include/c++/9/bits/stl_vector.h **** #if __cplusplus >= 201103L
  63:/usr/include/c++/9/bits/stl_vector.h **** #include <initializer_list>
  64:/usr/include/c++/9/bits/stl_vector.h **** #endif
  65:/usr/include/c++/9/bits/stl_vector.h **** 
  66:/usr/include/c++/9/bits/stl_vector.h **** #include <debug/assertions.h>
  67:/usr/include/c++/9/bits/stl_vector.h **** 
  68:/usr/include/c++/9/bits/stl_vector.h **** #if _GLIBCXX_SANITIZE_STD_ALLOCATOR && _GLIBCXX_SANITIZE_VECTOR
  69:/usr/include/c++/9/bits/stl_vector.h **** extern "C" void
  70:/usr/include/c++/9/bits/stl_vector.h **** __sanitizer_annotate_contiguous_container(const void*, const void*,
  71:/usr/include/c++/9/bits/stl_vector.h **** 					  const void*, const void*);
  72:/usr/include/c++/9/bits/stl_vector.h **** #endif
  73:/usr/include/c++/9/bits/stl_vector.h **** 
  74:/usr/include/c++/9/bits/stl_vector.h **** namespace std _GLIBCXX_VISIBILITY(default)
  75:/usr/include/c++/9/bits/stl_vector.h **** {
  76:/usr/include/c++/9/bits/stl_vector.h **** _GLIBCXX_BEGIN_NAMESPACE_VERSION
  77:/usr/include/c++/9/bits/stl_vector.h **** _GLIBCXX_BEGIN_NAMESPACE_CONTAINER
  78:/usr/include/c++/9/bits/stl_vector.h **** 
  79:/usr/include/c++/9/bits/stl_vector.h ****   /// See bits/stl_deque.h's _Deque_base for an explanation.
  80:/usr/include/c++/9/bits/stl_vector.h ****   template<typename _Tp, typename _Alloc>
  81:/usr/include/c++/9/bits/stl_vector.h ****     struct _Vector_base
  82:/usr/include/c++/9/bits/stl_vector.h ****     {
  83:/usr/include/c++/9/bits/stl_vector.h ****       typedef typename __gnu_cxx::__alloc_traits<_Alloc>::template
  84:/usr/include/c++/9/bits/stl_vector.h **** 	rebind<_Tp>::other _Tp_alloc_type;
  85:/usr/include/c++/9/bits/stl_vector.h ****       typedef typename __gnu_cxx::__alloc_traits<_Tp_alloc_type>::pointer
  86:/usr/include/c++/9/bits/stl_vector.h ****        	pointer;
  87:/usr/include/c++/9/bits/stl_vector.h **** 
  88:/usr/include/c++/9/bits/stl_vector.h ****       struct _Vector_impl_data
  89:/usr/include/c++/9/bits/stl_vector.h ****       {
  90:/usr/include/c++/9/bits/stl_vector.h **** 	pointer _M_start;
  91:/usr/include/c++/9/bits/stl_vector.h **** 	pointer _M_finish;
  92:/usr/include/c++/9/bits/stl_vector.h **** 	pointer _M_end_of_storage;
  93:/usr/include/c++/9/bits/stl_vector.h **** 
  94:/usr/include/c++/9/bits/stl_vector.h **** 	_Vector_impl_data() _GLIBCXX_NOEXCEPT
  95:/usr/include/c++/9/bits/stl_vector.h **** 	: _M_start(), _M_finish(), _M_end_of_storage()
  96:/usr/include/c++/9/bits/stl_vector.h **** 	{ }
  97:/usr/include/c++/9/bits/stl_vector.h **** 
  98:/usr/include/c++/9/bits/stl_vector.h **** #if __cplusplus >= 201103L
  99:/usr/include/c++/9/bits/stl_vector.h **** 	_Vector_impl_data(_Vector_impl_data&& __x) noexcept
 100:/usr/include/c++/9/bits/stl_vector.h **** 	: _M_start(__x._M_start), _M_finish(__x._M_finish),
 101:/usr/include/c++/9/bits/stl_vector.h **** 	  _M_end_of_storage(__x._M_end_of_storage)
 102:/usr/include/c++/9/bits/stl_vector.h **** 	{ __x._M_start = __x._M_finish = __x._M_end_of_storage = pointer(); }
 103:/usr/include/c++/9/bits/stl_vector.h **** #endif
 104:/usr/include/c++/9/bits/stl_vector.h **** 
 105:/usr/include/c++/9/bits/stl_vector.h **** 	void
 106:/usr/include/c++/9/bits/stl_vector.h **** 	_M_copy_data(_Vector_impl_data const& __x) _GLIBCXX_NOEXCEPT
 107:/usr/include/c++/9/bits/stl_vector.h **** 	{
 108:/usr/include/c++/9/bits/stl_vector.h **** 	  _M_start = __x._M_start;
 109:/usr/include/c++/9/bits/stl_vector.h **** 	  _M_finish = __x._M_finish;
 110:/usr/include/c++/9/bits/stl_vector.h **** 	  _M_end_of_storage = __x._M_end_of_storage;
 111:/usr/include/c++/9/bits/stl_vector.h **** 	}
 112:/usr/include/c++/9/bits/stl_vector.h **** 
 113:/usr/include/c++/9/bits/stl_vector.h **** 	void
 114:/usr/include/c++/9/bits/stl_vector.h **** 	_M_swap_data(_Vector_impl_data& __x) _GLIBCXX_NOEXCEPT
 115:/usr/include/c++/9/bits/stl_vector.h **** 	{
 116:/usr/include/c++/9/bits/stl_vector.h **** 	  // Do not use std::swap(_M_start, __x._M_start), etc as it loses
 117:/usr/include/c++/9/bits/stl_vector.h **** 	  // information used by TBAA.
 118:/usr/include/c++/9/bits/stl_vector.h **** 	  _Vector_impl_data __tmp;
 119:/usr/include/c++/9/bits/stl_vector.h **** 	  __tmp._M_copy_data(*this);
 120:/usr/include/c++/9/bits/stl_vector.h **** 	  _M_copy_data(__x);
 121:/usr/include/c++/9/bits/stl_vector.h **** 	  __x._M_copy_data(__tmp);
 122:/usr/include/c++/9/bits/stl_vector.h **** 	}
 123:/usr/include/c++/9/bits/stl_vector.h ****       };
 124:/usr/include/c++/9/bits/stl_vector.h **** 
 125:/usr/include/c++/9/bits/stl_vector.h ****       struct _Vector_impl
 924              		.loc 4 125 14
 925              		.cfi_startproc
 926 0000 F30F1EFA 		endbr64
 927 0004 55       		pushq	%rbp
 928              		.cfi_def_cfa_offset 16
 929              		.cfi_offset 6, -16
 930 0005 4889E5   		movq	%rsp, %rbp
 931              		.cfi_def_cfa_register 6
 932 0008 4883EC10 		subq	$16, %rsp
 933 000c 48897DF8 		movq	%rdi, -8(%rbp)
 934              	.LBB6:
 935              		.loc 4 125 14
 936 0010 48837DF8 		cmpq	$0, -8(%rbp)
 936      00
 937 0015 7511     		jne	.L55
 938 0017 BE000000 		movl	$0, %esi
 938      00
 939 001c 488D3D00 		leaq	.Lubsan_data387(%rip), %rdi
 939      000000
 940 0023 E8000000 		call	__ubsan_handle_type_mismatch_v1@PLT
 940      00
 941              	.L55:
 942 0028 488B45F8 		movq	-8(%rbp), %rax
 943 002c 4889C7   		movq	%rax, %rdi
 944 002f E8000000 		call	_ZNSaINSt7__cxx1112basic_stringIcSt11char_traitsIcESaIcEEEED2Ev
 944      00
 945 0034 488B45F8 		movq	-8(%rbp), %rax
 946 0038 48837DF8 		cmpq	$0, -8(%rbp)
 946      00
 947 003d 740B     		je	.L56
 948 003f 4889C2   		movq	%rax, %rdx
 949 0042 83E207   		andl	$7, %edx
 950 0045 4885D2   		testq	%rdx, %rdx
 951 0048 740F     		je	.L58
 952              	.L56:
 953 004a 4889C6   		movq	%rax, %rsi
 954 004d 488D3D00 		leaq	.Lubsan_data388(%rip), %rdi
 954      000000
 955 0054 E8000000 		call	__ubsan_handle_type_mismatch_v1@PLT
 955      00
 956              	.L58:
 957              	.LBE6:
 958 0059 90       		nop
 959 005a C9       		leave
 960              		.cfi_def_cfa 7, 8
 961 005b C3       		ret
 962              		.cfi_endproc
 963              	.LFE2348:
 965              		.weak	_ZNSt12_Vector_baseINSt7__cxx1112basic_stringIcSt11char_traitsIcESaIcEEESaIS5_EE12_Vector_im
 966              		.set	_ZNSt12_Vector_baseINSt7__cxx1112basic_stringIcSt11char_traitsIcESaIcEEESaIS5_EE12_Vector_imp
 967              		.data
 968              		.align 32
 971              	.Lubsan_type8:
 974 0104 27737472 		.string	"'struct _Vector_base'"
 974      75637420 
 974      5F566563 
 974      746F725F 
 974      62617365 
 975 011a 00000000 		.zero	38
 975      00000000 
 975      00000000 
 975      00000000 
 975      00000000 
 976              		.section	.data.rel.local
 977              		.align 32
 980              	.Lubsan_data389:
 981 03c0 00000000 		.quad	.LC3
 981      00000000 
 982 03c8 1D010000 		.long	285
 983 03cc 07000000 		.long	7
 984 03d0 00000000 		.quad	.Lubsan_type8
 984      00000000 
 985 03d8 03       		.byte	3
 986 03d9 03       		.byte	3
 987 03da 00000000 		.zero	6
 987      0000
 988 03e0 00000000 		.zero	32
 988      00000000 
 988      00000000 
 988      00000000 
 988      00000000 
 989              		.data
 990              		.align 32
 993              	.Lubsan_type9:
 996 0144 27737472 		.string	"'struct _Vector_impl'"
 996      75637420 
 996      5F566563 
 996      746F725F 
 996      696D706C 
 997 015a 00000000 		.zero	38
 997      00000000 
 997      00000000 
 997      00000000 
 997      00000000 
 998              		.section	.data.rel.local
 999              		.align 32
 1002              	.Lubsan_data390:
 1003 0400 00000000 		.quad	.LC3
 1003      00000000 
 1004 0408 1D010000 		.long	285
 1005 040c 07000000 		.long	7
 1006 0410 00000000 		.quad	.Lubsan_type9
 1006      00000000 
 1007 0418 03       		.byte	3
 1008 0419 05       		.byte	5
 1009 041a 00000000 		.zero	6
 1009      0000
 1010 0420 00000000 		.zero	32
 1010      00000000 
 1010      00000000 
 1010      00000000 
 1010      00000000 
 1011              		.section	.text._ZNSt12_Vector_baseINSt7__cxx1112basic_stringIcSt11char_traitsIcESaIcEEESaIS5_EEC2E
 1012              		.align 2
 1013              		.weak	_ZNSt12_Vector_baseINSt7__cxx1112basic_stringIcSt11char_traitsIcESaIcEEESaIS5_EEC2Ev
 1015              	_ZNSt12_Vector_baseINSt7__cxx1112basic_stringIcSt11char_traitsIcESaIcEEESaIS5_EEC2Ev:
 1016              	.LASANPC2350:
 1017              	.LFB2350:
 126:/usr/include/c++/9/bits/stl_vector.h **** 	: public _Tp_alloc_type, public _Vector_impl_data
 127:/usr/include/c++/9/bits/stl_vector.h ****       {
 128:/usr/include/c++/9/bits/stl_vector.h **** 	_Vector_impl() _GLIBCXX_NOEXCEPT_IF(
 129:/usr/include/c++/9/bits/stl_vector.h **** 	    is_nothrow_default_constructible<_Tp_alloc_type>::value)
 130:/usr/include/c++/9/bits/stl_vector.h **** 	: _Tp_alloc_type()
 131:/usr/include/c++/9/bits/stl_vector.h **** 	{ }
 132:/usr/include/c++/9/bits/stl_vector.h **** 
 133:/usr/include/c++/9/bits/stl_vector.h **** 	_Vector_impl(_Tp_alloc_type const& __a) _GLIBCXX_NOEXCEPT
 134:/usr/include/c++/9/bits/stl_vector.h **** 	: _Tp_alloc_type(__a)
 135:/usr/include/c++/9/bits/stl_vector.h **** 	{ }
 136:/usr/include/c++/9/bits/stl_vector.h **** 
 137:/usr/include/c++/9/bits/stl_vector.h **** #if __cplusplus >= 201103L
 138:/usr/include/c++/9/bits/stl_vector.h **** 	// Not defaulted, to enforce noexcept(true) even when
 139:/usr/include/c++/9/bits/stl_vector.h **** 	// !is_nothrow_move_constructible<_Tp_alloc_type>.
 140:/usr/include/c++/9/bits/stl_vector.h **** 	_Vector_impl(_Vector_impl&& __x) noexcept
 141:/usr/include/c++/9/bits/stl_vector.h **** 	: _Tp_alloc_type(std::move(__x)), _Vector_impl_data(std::move(__x))
 142:/usr/include/c++/9/bits/stl_vector.h **** 	{ }
 143:/usr/include/c++/9/bits/stl_vector.h **** 
 144:/usr/include/c++/9/bits/stl_vector.h **** 	_Vector_impl(_Tp_alloc_type&& __a) noexcept
 145:/usr/include/c++/9/bits/stl_vector.h **** 	: _Tp_alloc_type(std::move(__a))
 146:/usr/include/c++/9/bits/stl_vector.h **** 	{ }
 147:/usr/include/c++/9/bits/stl_vector.h **** 
 148:/usr/include/c++/9/bits/stl_vector.h **** 	_Vector_impl(_Tp_alloc_type&& __a, _Vector_impl&& __rv) noexcept
 149:/usr/include/c++/9/bits/stl_vector.h **** 	: _Tp_alloc_type(std::move(__a)), _Vector_impl_data(std::move(__rv))
 150:/usr/include/c++/9/bits/stl_vector.h **** 	{ }
 151:/usr/include/c++/9/bits/stl_vector.h **** #endif
 152:/usr/include/c++/9/bits/stl_vector.h **** 
 153:/usr/include/c++/9/bits/stl_vector.h **** #if _GLIBCXX_SANITIZE_STD_ALLOCATOR && _GLIBCXX_SANITIZE_VECTOR
 154:/usr/include/c++/9/bits/stl_vector.h **** 	template<typename = _Tp_alloc_type>
 155:/usr/include/c++/9/bits/stl_vector.h **** 	  struct _Asan
 156:/usr/include/c++/9/bits/stl_vector.h **** 	  {
 157:/usr/include/c++/9/bits/stl_vector.h **** 	    typedef typename __gnu_cxx::__alloc_traits<_Tp_alloc_type>
 158:/usr/include/c++/9/bits/stl_vector.h **** 	      ::size_type size_type;
 159:/usr/include/c++/9/bits/stl_vector.h **** 
 160:/usr/include/c++/9/bits/stl_vector.h **** 	    static void _S_shrink(_Vector_impl&, size_type) { }
 161:/usr/include/c++/9/bits/stl_vector.h **** 	    static void _S_on_dealloc(_Vector_impl&) { }
 162:/usr/include/c++/9/bits/stl_vector.h **** 
 163:/usr/include/c++/9/bits/stl_vector.h **** 	    typedef _Vector_impl& _Reinit;
 164:/usr/include/c++/9/bits/stl_vector.h **** 
 165:/usr/include/c++/9/bits/stl_vector.h **** 	    struct _Grow
 166:/usr/include/c++/9/bits/stl_vector.h **** 	    {
 167:/usr/include/c++/9/bits/stl_vector.h **** 	      _Grow(_Vector_impl&, size_type) { }
 168:/usr/include/c++/9/bits/stl_vector.h **** 	      void _M_grew(size_type) { }
 169:/usr/include/c++/9/bits/stl_vector.h **** 	    };
 170:/usr/include/c++/9/bits/stl_vector.h **** 	  };
 171:/usr/include/c++/9/bits/stl_vector.h **** 
 172:/usr/include/c++/9/bits/stl_vector.h **** 	// Enable ASan annotations for memory obtained from std::allocator.
 173:/usr/include/c++/9/bits/stl_vector.h **** 	template<typename _Up>
 174:/usr/include/c++/9/bits/stl_vector.h **** 	  struct _Asan<allocator<_Up> >
 175:/usr/include/c++/9/bits/stl_vector.h **** 	  {
 176:/usr/include/c++/9/bits/stl_vector.h **** 	    typedef typename __gnu_cxx::__alloc_traits<_Tp_alloc_type>
 177:/usr/include/c++/9/bits/stl_vector.h **** 	      ::size_type size_type;
 178:/usr/include/c++/9/bits/stl_vector.h **** 
 179:/usr/include/c++/9/bits/stl_vector.h **** 	    // Adjust ASan annotation for [_M_start, _M_end_of_storage) to
 180:/usr/include/c++/9/bits/stl_vector.h **** 	    // mark end of valid region as __curr instead of __prev.
 181:/usr/include/c++/9/bits/stl_vector.h **** 	    static void
 182:/usr/include/c++/9/bits/stl_vector.h **** 	    _S_adjust(_Vector_impl& __impl, pointer __prev, pointer __curr)
 183:/usr/include/c++/9/bits/stl_vector.h **** 	    {
 184:/usr/include/c++/9/bits/stl_vector.h **** 	      __sanitizer_annotate_contiguous_container(__impl._M_start,
 185:/usr/include/c++/9/bits/stl_vector.h **** 		  __impl._M_end_of_storage, __prev, __curr);
 186:/usr/include/c++/9/bits/stl_vector.h **** 	    }
 187:/usr/include/c++/9/bits/stl_vector.h **** 
 188:/usr/include/c++/9/bits/stl_vector.h **** 	    static void
 189:/usr/include/c++/9/bits/stl_vector.h **** 	    _S_grow(_Vector_impl& __impl, size_type __n)
 190:/usr/include/c++/9/bits/stl_vector.h **** 	    { _S_adjust(__impl, __impl._M_finish, __impl._M_finish + __n); }
 191:/usr/include/c++/9/bits/stl_vector.h **** 
 192:/usr/include/c++/9/bits/stl_vector.h **** 	    static void
 193:/usr/include/c++/9/bits/stl_vector.h **** 	    _S_shrink(_Vector_impl& __impl, size_type __n)
 194:/usr/include/c++/9/bits/stl_vector.h **** 	    { _S_adjust(__impl, __impl._M_finish + __n, __impl._M_finish); }
 195:/usr/include/c++/9/bits/stl_vector.h **** 
 196:/usr/include/c++/9/bits/stl_vector.h **** 	    static void
 197:/usr/include/c++/9/bits/stl_vector.h **** 	    _S_on_dealloc(_Vector_impl& __impl)
 198:/usr/include/c++/9/bits/stl_vector.h **** 	    {
 199:/usr/include/c++/9/bits/stl_vector.h **** 	      if (__impl._M_start)
 200:/usr/include/c++/9/bits/stl_vector.h **** 		_S_adjust(__impl, __impl._M_finish, __impl._M_end_of_storage);
 201:/usr/include/c++/9/bits/stl_vector.h **** 	    }
 202:/usr/include/c++/9/bits/stl_vector.h **** 
 203:/usr/include/c++/9/bits/stl_vector.h **** 	    // Used on reallocation to tell ASan unused capacity is invalid.
 204:/usr/include/c++/9/bits/stl_vector.h **** 	    struct _Reinit
 205:/usr/include/c++/9/bits/stl_vector.h **** 	    {
 206:/usr/include/c++/9/bits/stl_vector.h **** 	      explicit _Reinit(_Vector_impl& __impl) : _M_impl(__impl)
 207:/usr/include/c++/9/bits/stl_vector.h **** 	      {
 208:/usr/include/c++/9/bits/stl_vector.h **** 		// Mark unused capacity as valid again before deallocating it.
 209:/usr/include/c++/9/bits/stl_vector.h **** 		_S_on_dealloc(_M_impl);
 210:/usr/include/c++/9/bits/stl_vector.h **** 	      }
 211:/usr/include/c++/9/bits/stl_vector.h **** 
 212:/usr/include/c++/9/bits/stl_vector.h **** 	      ~_Reinit()
 213:/usr/include/c++/9/bits/stl_vector.h **** 	      {
 214:/usr/include/c++/9/bits/stl_vector.h **** 		// Mark unused capacity as invalid after reallocation.
 215:/usr/include/c++/9/bits/stl_vector.h **** 		if (_M_impl._M_start)
 216:/usr/include/c++/9/bits/stl_vector.h **** 		  _S_adjust(_M_impl, _M_impl._M_end_of_storage,
 217:/usr/include/c++/9/bits/stl_vector.h **** 			    _M_impl._M_finish);
 218:/usr/include/c++/9/bits/stl_vector.h **** 	      }
 219:/usr/include/c++/9/bits/stl_vector.h **** 
 220:/usr/include/c++/9/bits/stl_vector.h **** 	      _Vector_impl& _M_impl;
 221:/usr/include/c++/9/bits/stl_vector.h **** 
 222:/usr/include/c++/9/bits/stl_vector.h **** #if __cplusplus >= 201103L
 223:/usr/include/c++/9/bits/stl_vector.h **** 	      _Reinit(const _Reinit&) = delete;
 224:/usr/include/c++/9/bits/stl_vector.h **** 	      _Reinit& operator=(const _Reinit&) = delete;
 225:/usr/include/c++/9/bits/stl_vector.h **** #endif
 226:/usr/include/c++/9/bits/stl_vector.h **** 	    };
 227:/usr/include/c++/9/bits/stl_vector.h **** 
 228:/usr/include/c++/9/bits/stl_vector.h **** 	    // Tell ASan when unused capacity is initialized to be valid.
 229:/usr/include/c++/9/bits/stl_vector.h **** 	    struct _Grow
 230:/usr/include/c++/9/bits/stl_vector.h **** 	    {
 231:/usr/include/c++/9/bits/stl_vector.h **** 	      _Grow(_Vector_impl& __impl, size_type __n)
 232:/usr/include/c++/9/bits/stl_vector.h **** 	      : _M_impl(__impl), _M_n(__n)
 233:/usr/include/c++/9/bits/stl_vector.h **** 	      { _S_grow(_M_impl, __n); }
 234:/usr/include/c++/9/bits/stl_vector.h **** 
 235:/usr/include/c++/9/bits/stl_vector.h **** 	      ~_Grow() { if (_M_n) _S_shrink(_M_impl, _M_n); }
 236:/usr/include/c++/9/bits/stl_vector.h **** 
 237:/usr/include/c++/9/bits/stl_vector.h **** 	      void _M_grew(size_type __n) { _M_n -= __n; }
 238:/usr/include/c++/9/bits/stl_vector.h **** 
 239:/usr/include/c++/9/bits/stl_vector.h **** #if __cplusplus >= 201103L
 240:/usr/include/c++/9/bits/stl_vector.h **** 	      _Grow(const _Grow&) = delete;
 241:/usr/include/c++/9/bits/stl_vector.h **** 	      _Grow& operator=(const _Grow&) = delete;
 242:/usr/include/c++/9/bits/stl_vector.h **** #endif
 243:/usr/include/c++/9/bits/stl_vector.h **** 	    private:
 244:/usr/include/c++/9/bits/stl_vector.h **** 	      _Vector_impl& _M_impl;
 245:/usr/include/c++/9/bits/stl_vector.h **** 	      size_type _M_n;
 246:/usr/include/c++/9/bits/stl_vector.h **** 	    };
 247:/usr/include/c++/9/bits/stl_vector.h **** 	  };
 248:/usr/include/c++/9/bits/stl_vector.h **** 
 249:/usr/include/c++/9/bits/stl_vector.h **** #define _GLIBCXX_ASAN_ANNOTATE_REINIT \
 250:/usr/include/c++/9/bits/stl_vector.h ****   typename _Base::_Vector_impl::template _Asan<>::_Reinit const \
 251:/usr/include/c++/9/bits/stl_vector.h **** 	__attribute__((__unused__)) __reinit_guard(this->_M_impl)
 252:/usr/include/c++/9/bits/stl_vector.h **** #define _GLIBCXX_ASAN_ANNOTATE_GROW(n) \
 253:/usr/include/c++/9/bits/stl_vector.h ****   typename _Base::_Vector_impl::template _Asan<>::_Grow \
 254:/usr/include/c++/9/bits/stl_vector.h **** 	__attribute__((__unused__)) __grow_guard(this->_M_impl, (n))
 255:/usr/include/c++/9/bits/stl_vector.h **** #define _GLIBCXX_ASAN_ANNOTATE_GREW(n) __grow_guard._M_grew(n)
 256:/usr/include/c++/9/bits/stl_vector.h **** #define _GLIBCXX_ASAN_ANNOTATE_SHRINK(n) \
 257:/usr/include/c++/9/bits/stl_vector.h ****   _Base::_Vector_impl::template _Asan<>::_S_shrink(this->_M_impl, n)
 258:/usr/include/c++/9/bits/stl_vector.h **** #define _GLIBCXX_ASAN_ANNOTATE_BEFORE_DEALLOC \
 259:/usr/include/c++/9/bits/stl_vector.h ****   _Base::_Vector_impl::template _Asan<>::_S_on_dealloc(this->_M_impl)
 260:/usr/include/c++/9/bits/stl_vector.h **** #else // ! (_GLIBCXX_SANITIZE_STD_ALLOCATOR && _GLIBCXX_SANITIZE_VECTOR)
 261:/usr/include/c++/9/bits/stl_vector.h **** #define _GLIBCXX_ASAN_ANNOTATE_REINIT
 262:/usr/include/c++/9/bits/stl_vector.h **** #define _GLIBCXX_ASAN_ANNOTATE_GROW(n)
 263:/usr/include/c++/9/bits/stl_vector.h **** #define _GLIBCXX_ASAN_ANNOTATE_GREW(n)
 264:/usr/include/c++/9/bits/stl_vector.h **** #define _GLIBCXX_ASAN_ANNOTATE_SHRINK(n)
 265:/usr/include/c++/9/bits/stl_vector.h **** #define _GLIBCXX_ASAN_ANNOTATE_BEFORE_DEALLOC
 266:/usr/include/c++/9/bits/stl_vector.h **** #endif // _GLIBCXX_SANITIZE_STD_ALLOCATOR && _GLIBCXX_SANITIZE_VECTOR
 267:/usr/include/c++/9/bits/stl_vector.h ****       };
 268:/usr/include/c++/9/bits/stl_vector.h **** 
 269:/usr/include/c++/9/bits/stl_vector.h ****     public:
 270:/usr/include/c++/9/bits/stl_vector.h ****       typedef _Alloc allocator_type;
 271:/usr/include/c++/9/bits/stl_vector.h **** 
 272:/usr/include/c++/9/bits/stl_vector.h ****       _Tp_alloc_type&
 273:/usr/include/c++/9/bits/stl_vector.h ****       _M_get_Tp_allocator() _GLIBCXX_NOEXCEPT
 274:/usr/include/c++/9/bits/stl_vector.h ****       { return this->_M_impl; }
 275:/usr/include/c++/9/bits/stl_vector.h **** 
 276:/usr/include/c++/9/bits/stl_vector.h ****       const _Tp_alloc_type&
 277:/usr/include/c++/9/bits/stl_vector.h ****       _M_get_Tp_allocator() const _GLIBCXX_NOEXCEPT
 278:/usr/include/c++/9/bits/stl_vector.h ****       { return this->_M_impl; }
 279:/usr/include/c++/9/bits/stl_vector.h **** 
 280:/usr/include/c++/9/bits/stl_vector.h ****       allocator_type
 281:/usr/include/c++/9/bits/stl_vector.h ****       get_allocator() const _GLIBCXX_NOEXCEPT
 282:/usr/include/c++/9/bits/stl_vector.h ****       { return allocator_type(_M_get_Tp_allocator()); }
 283:/usr/include/c++/9/bits/stl_vector.h **** 
 284:/usr/include/c++/9/bits/stl_vector.h **** #if __cplusplus >= 201103L
 285:/usr/include/c++/9/bits/stl_vector.h ****       _Vector_base() = default;
 1018              		.loc 4 285 7
 1019              		.cfi_startproc
 1020 0000 F30F1EFA 		endbr64
 1021 0004 55       		pushq	%rbp
 1022              		.cfi_def_cfa_offset 16
 1023              		.cfi_offset 6, -16
 1024 0005 4889E5   		movq	%rsp, %rbp
 1025              		.cfi_def_cfa_register 6
 1026 0008 53       		pushq	%rbx
 1027 0009 4883EC18 		subq	$24, %rsp
 1028              		.cfi_offset 3, -24
 1029 000d 48897DE8 		movq	%rdi, -24(%rbp)
 1030              	.LBB7:
 1031              		.loc 4 285 7
 1032 0011 488B45E8 		movq	-24(%rbp), %rax
 1033 0015 48837DE8 		cmpq	$0, -24(%rbp)
 1033      00
 1034 001a 740B     		je	.L60
 1035 001c 4889C2   		movq	%rax, %rdx
 1036 001f 83E207   		andl	$7, %edx
 1037 0022 4885D2   		testq	%rdx, %rdx
 1038 0025 740F     		je	.L61
 1039              	.L60:
 1040 0027 4889C6   		movq	%rax, %rsi
 1041 002a 488D3D00 		leaq	.Lubsan_data389(%rip), %rdi
 1041      000000
 1042 0031 E8000000 		call	__ubsan_handle_type_mismatch_v1@PLT
 1042      00
 1043              	.L61:
 1044 0036 488B5DE8 		movq	-24(%rbp), %rbx
 1045 003a 4889D8   		movq	%rbx, %rax
 1046 003d 4885DB   		testq	%rbx, %rbx
 1047 0040 740B     		je	.L62
 1048 0042 4889C2   		movq	%rax, %rdx
 1049 0045 83E207   		andl	$7, %edx
 1050 0048 4885D2   		testq	%rdx, %rdx
 1051 004b 740F     		je	.L63
 1052              	.L62:
 1053 004d 4889C6   		movq	%rax, %rsi
 1054 0050 488D3D00 		leaq	.Lubsan_data390(%rip), %rdi
 1054      000000
 1055 0057 E8000000 		call	__ubsan_handle_type_mismatch_v1@PLT
 1055      00
 1056              	.L63:
 1057 005c 4889DF   		movq	%rbx, %rdi
 1058 005f E8000000 		call	_ZNSt12_Vector_baseINSt7__cxx1112basic_stringIcSt11char_traitsIcESaIcEEESaIS5_EE12_Vector_imp
 1058      00
 1059              	.LBE7:
 1060 0064 90       		nop
 1061 0065 4883C418 		addq	$24, %rsp
 1062 0069 5B       		popq	%rbx
 1063 006a 5D       		popq	%rbp
 1064              		.cfi_def_cfa 7, 8
 1065 006b C3       		ret
 1066              		.cfi_endproc
 1067              	.LFE2350:
 1069              		.weak	_ZNSt12_Vector_baseINSt7__cxx1112basic_stringIcSt11char_traitsIcESaIcEEESaIS5_EEC1Ev
 1070              		.set	_ZNSt12_Vector_baseINSt7__cxx1112basic_stringIcSt11char_traitsIcESaIcEEESaIS5_EEC1Ev,_ZNSt12_
 1071              		.data
 1072              		.align 32
 1075              	.Lubsan_type10:
 1078 0184 27737472 		.string	"'struct vector'"
 1078      75637420 
 1078      76656374 
 1078      6F722700 
 1079 0194 00000000 		.zero	44
 1079      00000000 
 1079      00000000 
 1079      00000000 
 1079      00000000 
 1080              		.section	.data.rel.local
 1081              		.align 32
 1084              	.Lubsan_data391:
 1085 0440 00000000 		.quad	.LC3
 1085      00000000 
 1086 0448 E4010000 		.long	484
 1087 044c 07000000 		.long	7
 1088 0450 00000000 		.quad	.Lubsan_type10
 1088      00000000 
 1089 0458 03       		.byte	3
 1090 0459 03       		.byte	3
 1091 045a 00000000 		.zero	6
 1091      0000
 1092 0460 00000000 		.zero	32
 1092      00000000 
 1092      00000000 
 1092      00000000 
 1092      00000000 
 1093              		.align 32
 1096              	.Lubsan_data392:
 1097 0480 00000000 		.quad	.LC3
 1097      00000000 
 1098 0488 E4010000 		.long	484
 1099 048c 07000000 		.long	7
 1100 0490 00000000 		.quad	.Lubsan_type8
 1100      00000000 
 1101 0498 03       		.byte	3
 1102 0499 05       		.byte	5
 1103 049a 00000000 		.zero	6
 1103      0000
 1104 04a0 00000000 		.zero	32
 1104      00000000 
 1104      00000000 
 1104      00000000 
 1104      00000000 
 1105              		.section	.text._ZNSt6vectorINSt7__cxx1112basic_stringIcSt11char_traitsIcESaIcEEESaIS5_EEC2Ev,"axG"
 1106              		.align 2
 1107              		.weak	_ZNSt6vectorINSt7__cxx1112basic_stringIcSt11char_traitsIcESaIcEEESaIS5_EEC2Ev
 1109              	_ZNSt6vectorINSt7__cxx1112basic_stringIcSt11char_traitsIcESaIcEEESaIS5_EEC2Ev:
 1110              	.LASANPC2352:
 1111              	.LFB2352:
 286:/usr/include/c++/9/bits/stl_vector.h **** #else
 287:/usr/include/c++/9/bits/stl_vector.h ****       _Vector_base() { }
 288:/usr/include/c++/9/bits/stl_vector.h **** #endif
 289:/usr/include/c++/9/bits/stl_vector.h **** 
 290:/usr/include/c++/9/bits/stl_vector.h ****       _Vector_base(const allocator_type& __a) _GLIBCXX_NOEXCEPT
 291:/usr/include/c++/9/bits/stl_vector.h ****       : _M_impl(__a) { }
 292:/usr/include/c++/9/bits/stl_vector.h **** 
 293:/usr/include/c++/9/bits/stl_vector.h ****       // Kept for ABI compatibility.
 294:/usr/include/c++/9/bits/stl_vector.h **** #if !_GLIBCXX_INLINE_VERSION
 295:/usr/include/c++/9/bits/stl_vector.h ****       _Vector_base(size_t __n)
 296:/usr/include/c++/9/bits/stl_vector.h ****       : _M_impl()
 297:/usr/include/c++/9/bits/stl_vector.h ****       { _M_create_storage(__n); }
 298:/usr/include/c++/9/bits/stl_vector.h **** #endif
 299:/usr/include/c++/9/bits/stl_vector.h **** 
 300:/usr/include/c++/9/bits/stl_vector.h ****       _Vector_base(size_t __n, const allocator_type& __a)
 301:/usr/include/c++/9/bits/stl_vector.h ****       : _M_impl(__a)
 302:/usr/include/c++/9/bits/stl_vector.h ****       { _M_create_storage(__n); }
 303:/usr/include/c++/9/bits/stl_vector.h **** 
 304:/usr/include/c++/9/bits/stl_vector.h **** #if __cplusplus >= 201103L
 305:/usr/include/c++/9/bits/stl_vector.h ****       _Vector_base(_Vector_base&&) = default;
 306:/usr/include/c++/9/bits/stl_vector.h **** 
 307:/usr/include/c++/9/bits/stl_vector.h ****       // Kept for ABI compatibility.
 308:/usr/include/c++/9/bits/stl_vector.h **** # if !_GLIBCXX_INLINE_VERSION
 309:/usr/include/c++/9/bits/stl_vector.h ****       _Vector_base(_Tp_alloc_type&& __a) noexcept
 310:/usr/include/c++/9/bits/stl_vector.h ****       : _M_impl(std::move(__a)) { }
 311:/usr/include/c++/9/bits/stl_vector.h **** 
 312:/usr/include/c++/9/bits/stl_vector.h ****       _Vector_base(_Vector_base&& __x, const allocator_type& __a)
 313:/usr/include/c++/9/bits/stl_vector.h ****       : _M_impl(__a)
 314:/usr/include/c++/9/bits/stl_vector.h ****       {
 315:/usr/include/c++/9/bits/stl_vector.h **** 	if (__x.get_allocator() == __a)
 316:/usr/include/c++/9/bits/stl_vector.h **** 	  this->_M_impl._M_swap_data(__x._M_impl);
 317:/usr/include/c++/9/bits/stl_vector.h **** 	else
 318:/usr/include/c++/9/bits/stl_vector.h **** 	  {
 319:/usr/include/c++/9/bits/stl_vector.h **** 	    size_t __n = __x._M_impl._M_finish - __x._M_impl._M_start;
 320:/usr/include/c++/9/bits/stl_vector.h **** 	    _M_create_storage(__n);
 321:/usr/include/c++/9/bits/stl_vector.h **** 	  }
 322:/usr/include/c++/9/bits/stl_vector.h ****       }
 323:/usr/include/c++/9/bits/stl_vector.h **** # endif
 324:/usr/include/c++/9/bits/stl_vector.h **** 
 325:/usr/include/c++/9/bits/stl_vector.h ****       _Vector_base(const allocator_type& __a, _Vector_base&& __x)
 326:/usr/include/c++/9/bits/stl_vector.h ****       : _M_impl(_Tp_alloc_type(__a), std::move(__x._M_impl))
 327:/usr/include/c++/9/bits/stl_vector.h ****       { }
 328:/usr/include/c++/9/bits/stl_vector.h **** #endif
 329:/usr/include/c++/9/bits/stl_vector.h **** 
 330:/usr/include/c++/9/bits/stl_vector.h ****       ~_Vector_base() _GLIBCXX_NOEXCEPT
 331:/usr/include/c++/9/bits/stl_vector.h ****       {
 332:/usr/include/c++/9/bits/stl_vector.h **** 	_M_deallocate(_M_impl._M_start,
 333:/usr/include/c++/9/bits/stl_vector.h **** 		      _M_impl._M_end_of_storage - _M_impl._M_start);
 334:/usr/include/c++/9/bits/stl_vector.h ****       }
 335:/usr/include/c++/9/bits/stl_vector.h **** 
 336:/usr/include/c++/9/bits/stl_vector.h ****     public:
 337:/usr/include/c++/9/bits/stl_vector.h ****       _Vector_impl _M_impl;
 338:/usr/include/c++/9/bits/stl_vector.h **** 
 339:/usr/include/c++/9/bits/stl_vector.h ****       pointer
 340:/usr/include/c++/9/bits/stl_vector.h ****       _M_allocate(size_t __n)
 341:/usr/include/c++/9/bits/stl_vector.h ****       {
 342:/usr/include/c++/9/bits/stl_vector.h **** 	typedef __gnu_cxx::__alloc_traits<_Tp_alloc_type> _Tr;
 343:/usr/include/c++/9/bits/stl_vector.h **** 	return __n != 0 ? _Tr::allocate(_M_impl, __n) : pointer();
 344:/usr/include/c++/9/bits/stl_vector.h ****       }
 345:/usr/include/c++/9/bits/stl_vector.h **** 
 346:/usr/include/c++/9/bits/stl_vector.h ****       void
 347:/usr/include/c++/9/bits/stl_vector.h ****       _M_deallocate(pointer __p, size_t __n)
 348:/usr/include/c++/9/bits/stl_vector.h ****       {
 349:/usr/include/c++/9/bits/stl_vector.h **** 	typedef __gnu_cxx::__alloc_traits<_Tp_alloc_type> _Tr;
 350:/usr/include/c++/9/bits/stl_vector.h **** 	if (__p)
 351:/usr/include/c++/9/bits/stl_vector.h **** 	  _Tr::deallocate(_M_impl, __p, __n);
 352:/usr/include/c++/9/bits/stl_vector.h ****       }
 353:/usr/include/c++/9/bits/stl_vector.h **** 
 354:/usr/include/c++/9/bits/stl_vector.h ****     protected:
 355:/usr/include/c++/9/bits/stl_vector.h ****       void
 356:/usr/include/c++/9/bits/stl_vector.h ****       _M_create_storage(size_t __n)
 357:/usr/include/c++/9/bits/stl_vector.h ****       {
 358:/usr/include/c++/9/bits/stl_vector.h **** 	this->_M_impl._M_start = this->_M_allocate(__n);
 359:/usr/include/c++/9/bits/stl_vector.h **** 	this->_M_impl._M_finish = this->_M_impl._M_start;
 360:/usr/include/c++/9/bits/stl_vector.h **** 	this->_M_impl._M_end_of_storage = this->_M_impl._M_start + __n;
 361:/usr/include/c++/9/bits/stl_vector.h ****       }
 362:/usr/include/c++/9/bits/stl_vector.h ****     };
 363:/usr/include/c++/9/bits/stl_vector.h **** 
 364:/usr/include/c++/9/bits/stl_vector.h ****   /**
 365:/usr/include/c++/9/bits/stl_vector.h ****    *  @brief A standard container which offers fixed time access to
 366:/usr/include/c++/9/bits/stl_vector.h ****    *  individual elements in any order.
 367:/usr/include/c++/9/bits/stl_vector.h ****    *
 368:/usr/include/c++/9/bits/stl_vector.h ****    *  @ingroup sequences
 369:/usr/include/c++/9/bits/stl_vector.h ****    *
 370:/usr/include/c++/9/bits/stl_vector.h ****    *  @tparam _Tp  Type of element.
 371:/usr/include/c++/9/bits/stl_vector.h ****    *  @tparam _Alloc  Allocator type, defaults to allocator<_Tp>.
 372:/usr/include/c++/9/bits/stl_vector.h ****    *
 373:/usr/include/c++/9/bits/stl_vector.h ****    *  Meets the requirements of a <a href="tables.html#65">container</a>, a
 374:/usr/include/c++/9/bits/stl_vector.h ****    *  <a href="tables.html#66">reversible container</a>, and a
 375:/usr/include/c++/9/bits/stl_vector.h ****    *  <a href="tables.html#67">sequence</a>, including the
 376:/usr/include/c++/9/bits/stl_vector.h ****    *  <a href="tables.html#68">optional sequence requirements</a> with the
 377:/usr/include/c++/9/bits/stl_vector.h ****    *  %exception of @c push_front and @c pop_front.
 378:/usr/include/c++/9/bits/stl_vector.h ****    *
 379:/usr/include/c++/9/bits/stl_vector.h ****    *  In some terminology a %vector can be described as a dynamic
 380:/usr/include/c++/9/bits/stl_vector.h ****    *  C-style array, it offers fast and efficient access to individual
 381:/usr/include/c++/9/bits/stl_vector.h ****    *  elements in any order and saves the user from worrying about
 382:/usr/include/c++/9/bits/stl_vector.h ****    *  memory and size allocation.  Subscripting ( @c [] ) access is
 383:/usr/include/c++/9/bits/stl_vector.h ****    *  also provided as with C-style arrays.
 384:/usr/include/c++/9/bits/stl_vector.h ****   */
 385:/usr/include/c++/9/bits/stl_vector.h ****   template<typename _Tp, typename _Alloc = std::allocator<_Tp> >
 386:/usr/include/c++/9/bits/stl_vector.h ****     class vector : protected _Vector_base<_Tp, _Alloc>
 387:/usr/include/c++/9/bits/stl_vector.h ****     {
 388:/usr/include/c++/9/bits/stl_vector.h **** #ifdef _GLIBCXX_CONCEPT_CHECKS
 389:/usr/include/c++/9/bits/stl_vector.h ****       // Concept requirements.
 390:/usr/include/c++/9/bits/stl_vector.h ****       typedef typename _Alloc::value_type		_Alloc_value_type;
 391:/usr/include/c++/9/bits/stl_vector.h **** # if __cplusplus < 201103L
 392:/usr/include/c++/9/bits/stl_vector.h ****       __glibcxx_class_requires(_Tp, _SGIAssignableConcept)
 393:/usr/include/c++/9/bits/stl_vector.h **** # endif
 394:/usr/include/c++/9/bits/stl_vector.h ****       __glibcxx_class_requires2(_Tp, _Alloc_value_type, _SameTypeConcept)
 395:/usr/include/c++/9/bits/stl_vector.h **** #endif
 396:/usr/include/c++/9/bits/stl_vector.h **** 
 397:/usr/include/c++/9/bits/stl_vector.h **** #if __cplusplus >= 201103L
 398:/usr/include/c++/9/bits/stl_vector.h ****       static_assert(is_same<typename remove_cv<_Tp>::type, _Tp>::value,
 399:/usr/include/c++/9/bits/stl_vector.h **** 	  "std::vector must have a non-const, non-volatile value_type");
 400:/usr/include/c++/9/bits/stl_vector.h **** # ifdef __STRICT_ANSI__
 401:/usr/include/c++/9/bits/stl_vector.h ****       static_assert(is_same<typename _Alloc::value_type, _Tp>::value,
 402:/usr/include/c++/9/bits/stl_vector.h **** 	  "std::vector must have the same value_type as its allocator");
 403:/usr/include/c++/9/bits/stl_vector.h **** # endif
 404:/usr/include/c++/9/bits/stl_vector.h **** #endif
 405:/usr/include/c++/9/bits/stl_vector.h **** 
 406:/usr/include/c++/9/bits/stl_vector.h ****       typedef _Vector_base<_Tp, _Alloc>			_Base;
 407:/usr/include/c++/9/bits/stl_vector.h ****       typedef typename _Base::_Tp_alloc_type		_Tp_alloc_type;
 408:/usr/include/c++/9/bits/stl_vector.h ****       typedef __gnu_cxx::__alloc_traits<_Tp_alloc_type>	_Alloc_traits;
 409:/usr/include/c++/9/bits/stl_vector.h **** 
 410:/usr/include/c++/9/bits/stl_vector.h ****     public:
 411:/usr/include/c++/9/bits/stl_vector.h ****       typedef _Tp					value_type;
 412:/usr/include/c++/9/bits/stl_vector.h ****       typedef typename _Base::pointer			pointer;
 413:/usr/include/c++/9/bits/stl_vector.h ****       typedef typename _Alloc_traits::const_pointer	const_pointer;
 414:/usr/include/c++/9/bits/stl_vector.h ****       typedef typename _Alloc_traits::reference		reference;
 415:/usr/include/c++/9/bits/stl_vector.h ****       typedef typename _Alloc_traits::const_reference	const_reference;
 416:/usr/include/c++/9/bits/stl_vector.h ****       typedef __gnu_cxx::__normal_iterator<pointer, vector> iterator;
 417:/usr/include/c++/9/bits/stl_vector.h ****       typedef __gnu_cxx::__normal_iterator<const_pointer, vector>
 418:/usr/include/c++/9/bits/stl_vector.h ****       const_iterator;
 419:/usr/include/c++/9/bits/stl_vector.h ****       typedef std::reverse_iterator<const_iterator>	const_reverse_iterator;
 420:/usr/include/c++/9/bits/stl_vector.h ****       typedef std::reverse_iterator<iterator>		reverse_iterator;
 421:/usr/include/c++/9/bits/stl_vector.h ****       typedef size_t					size_type;
 422:/usr/include/c++/9/bits/stl_vector.h ****       typedef ptrdiff_t					difference_type;
 423:/usr/include/c++/9/bits/stl_vector.h ****       typedef _Alloc					allocator_type;
 424:/usr/include/c++/9/bits/stl_vector.h **** 
 425:/usr/include/c++/9/bits/stl_vector.h ****     private:
 426:/usr/include/c++/9/bits/stl_vector.h **** #if __cplusplus >= 201103L
 427:/usr/include/c++/9/bits/stl_vector.h ****       static constexpr bool
 428:/usr/include/c++/9/bits/stl_vector.h ****       _S_nothrow_relocate(true_type)
 429:/usr/include/c++/9/bits/stl_vector.h ****       {
 430:/usr/include/c++/9/bits/stl_vector.h **** 	return noexcept(std::__relocate_a(std::declval<pointer>(),
 431:/usr/include/c++/9/bits/stl_vector.h **** 					  std::declval<pointer>(),
 432:/usr/include/c++/9/bits/stl_vector.h **** 					  std::declval<pointer>(),
 433:/usr/include/c++/9/bits/stl_vector.h **** 					  std::declval<_Tp_alloc_type&>()));
 434:/usr/include/c++/9/bits/stl_vector.h ****       }
 435:/usr/include/c++/9/bits/stl_vector.h **** 
 436:/usr/include/c++/9/bits/stl_vector.h ****       static constexpr bool
 437:/usr/include/c++/9/bits/stl_vector.h ****       _S_nothrow_relocate(false_type)
 438:/usr/include/c++/9/bits/stl_vector.h ****       { return false; }
 439:/usr/include/c++/9/bits/stl_vector.h **** 
 440:/usr/include/c++/9/bits/stl_vector.h ****       static constexpr bool
 441:/usr/include/c++/9/bits/stl_vector.h ****       _S_use_relocate()
 442:/usr/include/c++/9/bits/stl_vector.h ****       {
 443:/usr/include/c++/9/bits/stl_vector.h **** 	// Instantiating std::__relocate_a might cause an error outside the
 444:/usr/include/c++/9/bits/stl_vector.h **** 	// immediate context (in __relocate_object_a's noexcept-specifier),
 445:/usr/include/c++/9/bits/stl_vector.h **** 	// so only do it if we know the type can be move-inserted into *this.
 446:/usr/include/c++/9/bits/stl_vector.h **** 	return _S_nothrow_relocate(__is_move_insertable<_Tp_alloc_type>{});
 447:/usr/include/c++/9/bits/stl_vector.h ****       }
 448:/usr/include/c++/9/bits/stl_vector.h **** 
 449:/usr/include/c++/9/bits/stl_vector.h ****       static pointer
 450:/usr/include/c++/9/bits/stl_vector.h ****       _S_do_relocate(pointer __first, pointer __last, pointer __result,
 451:/usr/include/c++/9/bits/stl_vector.h **** 		     _Tp_alloc_type& __alloc, true_type) noexcept
 452:/usr/include/c++/9/bits/stl_vector.h ****       {
 453:/usr/include/c++/9/bits/stl_vector.h **** 	return std::__relocate_a(__first, __last, __result, __alloc);
 454:/usr/include/c++/9/bits/stl_vector.h ****       }
 455:/usr/include/c++/9/bits/stl_vector.h **** 
 456:/usr/include/c++/9/bits/stl_vector.h ****       static pointer
 457:/usr/include/c++/9/bits/stl_vector.h ****       _S_do_relocate(pointer, pointer, pointer __result,
 458:/usr/include/c++/9/bits/stl_vector.h **** 		     _Tp_alloc_type&, false_type) noexcept
 459:/usr/include/c++/9/bits/stl_vector.h ****       { return __result; }
 460:/usr/include/c++/9/bits/stl_vector.h **** 
 461:/usr/include/c++/9/bits/stl_vector.h ****       static pointer
 462:/usr/include/c++/9/bits/stl_vector.h ****       _S_relocate(pointer __first, pointer __last, pointer __result,
 463:/usr/include/c++/9/bits/stl_vector.h **** 		  _Tp_alloc_type& __alloc) noexcept
 464:/usr/include/c++/9/bits/stl_vector.h ****       {
 465:/usr/include/c++/9/bits/stl_vector.h **** 	using __do_it = __bool_constant<_S_use_relocate()>;
 466:/usr/include/c++/9/bits/stl_vector.h **** 	return _S_do_relocate(__first, __last, __result, __alloc, __do_it{});
 467:/usr/include/c++/9/bits/stl_vector.h ****       }
 468:/usr/include/c++/9/bits/stl_vector.h **** #endif // C++11
 469:/usr/include/c++/9/bits/stl_vector.h **** 
 470:/usr/include/c++/9/bits/stl_vector.h ****     protected:
 471:/usr/include/c++/9/bits/stl_vector.h ****       using _Base::_M_allocate;
 472:/usr/include/c++/9/bits/stl_vector.h ****       using _Base::_M_deallocate;
 473:/usr/include/c++/9/bits/stl_vector.h ****       using _Base::_M_impl;
 474:/usr/include/c++/9/bits/stl_vector.h ****       using _Base::_M_get_Tp_allocator;
 475:/usr/include/c++/9/bits/stl_vector.h **** 
 476:/usr/include/c++/9/bits/stl_vector.h ****     public:
 477:/usr/include/c++/9/bits/stl_vector.h ****       // [23.2.4.1] construct/copy/destroy
 478:/usr/include/c++/9/bits/stl_vector.h ****       // (assign() and get_allocator() are also listed in this section)
 479:/usr/include/c++/9/bits/stl_vector.h **** 
 480:/usr/include/c++/9/bits/stl_vector.h ****       /**
 481:/usr/include/c++/9/bits/stl_vector.h ****        *  @brief  Creates a %vector with no elements.
 482:/usr/include/c++/9/bits/stl_vector.h ****        */
 483:/usr/include/c++/9/bits/stl_vector.h **** #if __cplusplus >= 201103L
 484:/usr/include/c++/9/bits/stl_vector.h ****       vector() = default;
 1112              		.loc 4 484 7
 1113              		.cfi_startproc
 1114 0000 F30F1EFA 		endbr64
 1115 0004 55       		pushq	%rbp
 1116              		.cfi_def_cfa_offset 16
 1117              		.cfi_offset 6, -16
 1118 0005 4889E5   		movq	%rsp, %rbp
 1119              		.cfi_def_cfa_register 6
 1120 0008 53       		pushq	%rbx
 1121 0009 4883EC18 		subq	$24, %rsp
 1122              		.cfi_offset 3, -24
 1123 000d 48897DE8 		movq	%rdi, -24(%rbp)
 1124              	.LBB8:
 1125              		.loc 4 484 7
 1126 0011 488B45E8 		movq	-24(%rbp), %rax
 1127 0015 48837DE8 		cmpq	$0, -24(%rbp)
 1127      00
 1128 001a 740B     		je	.L65
 1129 001c 4889C2   		movq	%rax, %rdx
 1130 001f 83E207   		andl	$7, %edx
 1131 0022 4885D2   		testq	%rdx, %rdx
 1132 0025 740F     		je	.L66
 1133              	.L65:
 1134 0027 4889C6   		movq	%rax, %rsi
 1135 002a 488D3D00 		leaq	.Lubsan_data391(%rip), %rdi
 1135      000000
 1136 0031 E8000000 		call	__ubsan_handle_type_mismatch_v1@PLT
 1136      00
 1137              	.L66:
 1138 0036 488B5DE8 		movq	-24(%rbp), %rbx
 1139 003a 4889D8   		movq	%rbx, %rax
 1140 003d 4885DB   		testq	%rbx, %rbx
 1141 0040 740B     		je	.L67
 1142 0042 4889C2   		movq	%rax, %rdx
 1143 0045 83E207   		andl	$7, %edx
 1144 0048 4885D2   		testq	%rdx, %rdx
 1145 004b 740F     		je	.L68
 1146              	.L67:
 1147 004d 4889C6   		movq	%rax, %rsi
 1148 0050 488D3D00 		leaq	.Lubsan_data392(%rip), %rdi
 1148      000000
 1149 0057 E8000000 		call	__ubsan_handle_type_mismatch_v1@PLT
 1149      00
 1150              	.L68:
 1151 005c 4889DF   		movq	%rbx, %rdi
 1152 005f E8000000 		call	_ZNSt12_Vector_baseINSt7__cxx1112basic_stringIcSt11char_traitsIcESaIcEEESaIS5_EEC2Ev
 1152      00
 1153              	.LBE8:
 1154 0064 90       		nop
 1155 0065 4883C418 		addq	$24, %rsp
 1156 0069 5B       		popq	%rbx
 1157 006a 5D       		popq	%rbp
 1158              		.cfi_def_cfa 7, 8
 1159 006b C3       		ret
 1160              		.cfi_endproc
 1161              	.LFE2352:
 1163              		.weak	_ZNSt6vectorINSt7__cxx1112basic_stringIcSt11char_traitsIcESaIcEEESaIS5_EEC1Ev
 1164              		.set	_ZNSt6vectorINSt7__cxx1112basic_stringIcSt11char_traitsIcESaIcEEESaIS5_EEC1Ev,_ZNSt6vectorINS
 1165              		.data
 1166              		.align 32
 1169              	.Lubsan_type11:
 1172 01c4 27626173 		.string	"'basic_ifstream'"
 1172      69635F69 
 1172      66737472 
 1172      65616D27 
 1172      00
 1173 01d5 00000000 		.zero	43
 1173      00000000 
 1173      00000000 
 1173      00000000 
 1173      00000000 
 1174              		.section	.data.rel,"aw"
 1175              		.align 32
 1178              	.Lubsan_data393:
 1179 0000 00000000 		.quad	.LC0
 1179      00000000 
 1180 0008 13000000 		.long	19
 1181 000c 13000000 		.long	19
 1182 0010 00000000 		.quad	.Lubsan_type11
 1182      00000000 
 1183 0018 00000000 		.quad	_ZTISt14basic_ifstreamIcSt11char_traitsIcEE
 1183      00000000 
 1184 0020 04       		.byte	4
 1185 0021 00000000 		.zero	7
 1185      000000
 1186 0028 00000000 		.zero	56
 1186      00000000 
 1186      00000000 
 1186      00000000 
 1186      00000000 
 1187              		.data
 1188              		.align 32
 1191              	.Lubsan_type12:
 1194 0204 27626173 		.string	"'basic_ofstream'"
 1194      69635F6F 
 1194      66737472 
 1194      65616D27 
 1194      00
 1195 0215 00000000 		.zero	43
 1195      00000000 
 1195      00000000 
 1195      00000000 
 1195      00000000 
 1196              		.section	.data.rel
 1197              		.align 32
 1200              	.Lubsan_data394:
 1201 0060 00000000 		.quad	.LC0
 1201      00000000 
 1202 0068 13000000 		.long	19
 1203 006c 25000000 		.long	37
 1204 0070 00000000 		.quad	.Lubsan_type12
 1204      00000000 
 1205 0078 00000000 		.quad	_ZTISt14basic_ofstreamIcSt11char_traitsIcEE
 1205      00000000 
 1206 0080 04       		.byte	4
 1207 0081 00000000 		.zero	7
 1207      000000
 1208 0088 00000000 		.zero	56
 1208      00000000 
 1208      00000000 
 1208      00000000 
 1208      00000000 
 1209              		.data
 1210              		.align 32
 1213              	.Lubsan_type13:
 1216 0244 27626173 		.string	"'basic_ios'"
 1216      69635F69 
 1216      6F732700 
 1217 0250 00000000 		.zero	48
 1217      00000000 
 1217      00000000 
 1217      00000000 
 1217      00000000 
 1218              		.section	.data.rel
 1219              		.align 32
 1222              	.Lubsan_data395:
 1223 00c0 00000000 		.quad	.LC0
 1223      00000000 
 1224 00c8 17000000 		.long	23
 1225 00cc 12000000 		.long	18
 1226 00d0 00000000 		.quad	.Lubsan_type13
 1226      00000000 
 1227 00d8 00000000 		.quad	_ZTISt9basic_iosIcSt11char_traitsIcEE
 1227      00000000 
 1228 00e0 04       		.byte	4
 1229 00e1 00000000 		.zero	7
 1229      000000
 1230 00e8 00000000 		.zero	56
 1230      00000000 
 1230      00000000 
 1230      00000000 
 1230      00000000 
 1231              		.section	.data.rel.local
 1232              		.align 32
 1235              	.Lubsan_data396:
 1236 04c0 00000000 		.quad	.LC0
 1236      00000000 
 1237 04c8 1A000000 		.long	26
 1238 04cc 31000000 		.long	49
 1239 04d0 00000000 		.quad	.Lubsan_type10
 1239      00000000 
 1240 04d8 03       		.byte	3
 1241 04d9 04       		.byte	4
 1242 04da 00000000 		.zero	6
 1242      0000
 1243 04e0 00000000 		.zero	32
 1243      00000000 
 1243      00000000 
 1243      00000000 
 1243      00000000 
 1244              		.data
 1245              		.align 32
 1248              	.Lubsan_type14:
 1251 0284 27636F6E 		.string	"'const struct value_type'"
 1251      73742073 
 1251      74727563 
 1251      74207661 
 1251      6C75655F 
 1252 029e 00000000 		.zero	34
 1252      00000000 
 1252      00000000 
 1252      00000000 
 1252      00000000 
 1253              		.section	.data.rel.local
 1254              		.align 32
 1257              	.Lubsan_data397:
 1258 0500 00000000 		.quad	.LC0
 1258      00000000 
 1259 0508 1A000000 		.long	26
 1260 050c 1E000000 		.long	30
 1261 0510 00000000 		.quad	.Lubsan_type14
 1261      00000000 
 1262 0518 03       		.byte	3
 1263 0519 02       		.byte	2
 1264 051a 00000000 		.zero	6
 1264      0000
 1265 0520 00000000 		.zero	32
 1265      00000000 
 1265      00000000 
 1265      00000000 
 1265      00000000 
 1266              		.align 32
 1269              	.Lubsan_data398:
 1270 0540 00000000 		.quad	.LC0
 1270      00000000 
 1271 0548 1C000000 		.long	28
 1272 054c 31000000 		.long	49
 1273 0550 00000000 		.quad	.Lubsan_type10
 1273      00000000 
 1274 0558 03       		.byte	3
 1275 0559 04       		.byte	4
 1276 055a 00000000 		.zero	6
 1276      0000
 1277 0560 00000000 		.zero	32
 1277      00000000 
 1277      00000000 
 1277      00000000 
 1277      00000000 
 1278              		.align 32
 1281              	.Lubsan_data399:
 1282 0580 00000000 		.quad	.LC0
 1282      00000000 
 1283 0588 1C000000 		.long	28
 1284 058c 1E000000 		.long	30
 1285 0590 00000000 		.quad	.Lubsan_type14
 1285      00000000 
 1286 0598 03       		.byte	3
 1287 0599 02       		.byte	2
 1288 059a 00000000 		.zero	6
 1288      0000
 1289 05a0 00000000 		.zero	32
 1289      00000000 
 1289      00000000 
 1289      00000000 
 1289      00000000 
 1290              		.data
 1291              		.align 32
 1294              	.Lubsan_type15:
 1297 02c4 27636F6E 		.string	"'const struct basic_string'"
 1297      73742073 
 1297      74727563 
 1297      74206261 
 1297      7369635F 
 1298 02e0 00000000 		.zero	32
 1298      00000000 
 1298      00000000 
 1298      00000000 
 1298      00000000 
 1299              		.section	.data.rel.local
 1300              		.align 32
 1303              	.Lubsan_data400:
 1304 05c0 00000000 		.quad	.LC0
 1304      00000000 
 1305 05c8 1D000000 		.long	29
 1306 05cc 40000000 		.long	64
 1307 05d0 00000000 		.quad	.Lubsan_type15
 1307      00000000 
 1308 05d8 03       		.byte	3
 1309 05d9 02       		.byte	2
 1310 05da 00000000 		.zero	6
 1310      0000
 1311 05e0 00000000 		.zero	32
 1311      00000000 
 1311      00000000 
 1311      00000000 
 1311      00000000 
 1312              		.align 32
 1315              	.Lubsan_data401:
 1316 0600 00000000 		.quad	.LC0
 1316      00000000 
 1317 0608 1D000000 		.long	29
 1318 060c 3B000000 		.long	59
 1319 0610 00000000 		.quad	.Lubsan_type10
 1319      00000000 
 1320 0618 03       		.byte	3
 1321 0619 04       		.byte	4
 1322 061a 00000000 		.zero	6
 1322      0000
 1323 0620 00000000 		.zero	32
 1323      00000000 
 1323      00000000 
 1323      00000000 
 1323      00000000 
 1324              		.align 32
 1327              	.Lubsan_data402:
 1328 0640 00000000 		.quad	.LC0
 1328      00000000 
 1329 0648 1D000000 		.long	29
 1330 064c 40000000 		.long	64
 1331 0650 00000000 		.quad	.Lubsan_type15
 1331      00000000 
 1332 0658 03       		.byte	3
 1333 0659 02       		.byte	2
 1334 065a 00000000 		.zero	6
 1334      0000
 1335 0660 00000000 		.zero	32
 1335      00000000 
 1335      00000000 
 1335      00000000 
 1335      00000000 
 1336              		.data
 1337              		.align 32
 1340              	.Lubsan_type16:
 1343 0304 27636F6E 		.string	"'const struct __normal_iterator'"
 1343      73742073 
 1343      74727563 
 1343      74205F5F 
 1343      6E6F726D 
 1344 0325 00000000 		.zero	59
 1344      00000000 
 1344      00000000 
 1344      00000000 
 1344      00000000 
 1345              		.section	.data.rel.local
 1346              		.align 32
 1349              	.Lubsan_data403:
 1350 0680 00000000 		.quad	.LC0
 1350      00000000 
 1351 0688 1E000000 		.long	30
 1352 068c 2E000000 		.long	46
 1353 0690 00000000 		.quad	.Lubsan_type16
 1353      00000000 
 1354 0698 03       		.byte	3
 1355 0699 02       		.byte	2
 1356 069a 00000000 		.zero	6
 1356      0000
 1357 06a0 00000000 		.zero	32
 1357      00000000 
 1357      00000000 
 1357      00000000 
 1357      00000000 
 1358              		.section	.data.rel
 1359              		.align 32
 1362              	.Lubsan_data404:
 1363 0120 00000000 		.quad	.LC0
 1363      00000000 
 1364 0128 23000000 		.long	35
 1365 012c 0C000000 		.long	12
 1366 0130 00000000 		.quad	.Lubsan_type12
 1366      00000000 
 1367 0138 00000000 		.quad	_ZTISt14basic_ofstreamIcSt11char_traitsIcEE
 1367      00000000 
 1368 0140 04       		.byte	4
 1369 0141 00000000 		.zero	7
 1369      000000
 1370 0148 00000000 		.zero	56
 1370      00000000 
 1370      00000000 
 1370      00000000 
 1370      00000000 
 1371              		.align 32
 1374              	.Lubsan_data405:
 1375 0180 00000000 		.quad	0
 1375      00000000 
 1376 0188 00000000 		.long	0
 1377 018c 00000000 		.long	0
 1378 0190 00000000 		.quad	.Lubsan_type12
 1378      00000000 
 1379 0198 00000000 		.quad	_ZTISt14basic_ofstreamIcSt11char_traitsIcEE
 1379      00000000 
 1380 01a0 04       		.byte	4
 1381 01a1 00000000 		.zero	7
 1381      000000
 1382 01a8 00000000 		.zero	56
 1382      00000000 
 1382      00000000 
 1382      00000000 
 1382      00000000 
 1383              		.align 32
 1386              	.Lubsan_data406:
 1387 01e0 00000000 		.quad	0
 1387      00000000 
 1388 01e8 00000000 		.long	0
 1389 01ec 00000000 		.long	0
 1390 01f0 00000000 		.quad	.Lubsan_type11
 1390      00000000 
 1391 01f8 00000000 		.quad	_ZTISt14basic_ifstreamIcSt11char_traitsIcEE
 1391      00000000 
 1392 0200 04       		.byte	4
 1393 0201 00000000 		.zero	7
 1393      000000
 1394 0208 00000000 		.zero	56
 1394      00000000 
 1394      00000000 
 1394      00000000 
 1394      00000000 
 1395              		.align 32
 1398              	.Lubsan_data407:
 1399 0240 00000000 		.quad	.LC0
 1399      00000000 
 1400 0248 12000000 		.long	18
 1401 024c 24000000 		.long	36
 1402 0250 00000000 		.quad	.Lubsan_type12
 1402      00000000 
 1403 0258 00000000 		.quad	_ZTISt14basic_ofstreamIcSt11char_traitsIcEE
 1403      00000000 
 1404 0260 04       		.byte	4
 1405 0261 00000000 		.zero	7
 1405      000000
 1406 0268 00000000 		.zero	56
 1406      00000000 
 1406      00000000 
 1406      00000000 
 1406      00000000 
 1407              		.align 32
 1410              	.Lubsan_data408:
 1411 02a0 00000000 		.quad	.LC0
 1411      00000000 
 1412 02a8 11000000 		.long	17
 1413 02ac 22000000 		.long	34
 1414 02b0 00000000 		.quad	.Lubsan_type11
 1414      00000000 
 1415 02b8 00000000 		.quad	_ZTISt14basic_ifstreamIcSt11char_traitsIcEE
 1415      00000000 
 1416 02c0 04       		.byte	4
 1417 02c1 00000000 		.zero	7
 1417      000000
 1418 02c8 00000000 		.zero	56
 1418      00000000 
 1418      00000000 
 1418      00000000 
 1418      00000000 
 1419              		.globl	__asan_stack_malloc_5
 1420              		.section	.rodata
 1421              		.align 8
 1422              	.LC4:
 1423 0160 31322034 		.string	"12 48 8 9 <unknown> 80 8 9 <unknown> 112 24 16 removed_dates:20 176 24 9 <unknown> 240 24
 1423      38203820 
 1423      39203C75 
 1423      6E6B6E6F 
 1423      776E3E20 
 1424              		.globl	__asan_stack_free_5
 1425 0246 00000000 		.align 32
 1425      00000000 
 1425      00000000 
 1425      00000000 
 1425      00000000 
 1426              	.LC5:
 1427 0260 776F7264 		.string	"wordles.txt"
 1427      6C65732E 
 1427      74787400 
 1428 026c 00000000 		.zero	52
 1428      00000000 
 1428      00000000 
 1428      00000000 
 1428      00000000 
 1429              		.align 32
 1430              	.LC6:
 1431 02a0 70726F63 		.string	"processed.txt"
 1431      65737365 
 1431      642E7478 
 1431      7400
 1432 02ae 00000000 		.zero	50
 1432      00000000 
 1432      00000000 
 1432      00000000 
 1432      00000000 
 1433              		.text
 1434              		.globl	main
 1436              	main:
 1437              	.LASANPC2344:
 1438              	.LFB2344:
  15:/home/arkel/c++/wordle/files/update_word_list.cpp **** 
  16:/home/arkel/c++/wordle/files/update_word_list.cpp **** int main() {
 1439              		.loc 3 16 12
 1440              		.cfi_startproc
 1441              		.cfi_personality 0x9b,DW.ref.__gxx_personality_v0
 1442              		.cfi_lsda 0x1b,.LLSDA2344
 1443 07a6 F30F1EFA 		endbr64
 1444 07aa 55       		pushq	%rbp
 1445              		.cfi_def_cfa_offset 16
 1446              		.cfi_offset 6, -16
 1447 07ab 4889E5   		movq	%rsp, %rbp
 1448              		.cfi_def_cfa_register 6
 1449 07ae 4157     		pushq	%r15
 1450 07b0 4156     		pushq	%r14
 1451 07b2 4155     		pushq	%r13
 1452 07b4 4154     		pushq	%r12
 1453 07b6 53       		pushq	%rbx
 1454 07b7 4881EC78 		subq	$1912, %rsp
 1454      070000
 1455              		.cfi_offset 15, -24
 1456              		.cfi_offset 14, -32
 1457              		.cfi_offset 13, -40
 1458              		.cfi_offset 12, -48
 1459              		.cfi_offset 3, -56
 1460 07be 4C8DAD70 		leaq	-1936(%rbp), %r13
 1460      F8FFFF
 1461 07c5 4D89EF   		movq	%r13, %r15
 1462 07c8 833D0000 		cmpl	$0, __asan_option_detect_stack_use_after_return(%rip)
 1462      000000
 1463 07cf 7412     		je	.L69
 1464 07d1 BF400700 		movl	$1856, %edi
 1464      00
 1465 07d6 E8000000 		call	__asan_stack_malloc_5@PLT
 1465      00
 1466              	.LVL1:
 1467 07db 4885C0   		testq	%rax, %rax
 1468 07de 7403     		je	.L69
 1469 07e0 4989C5   		movq	%rax, %r13
 1470              	.L69:
 1471 07e3 498D8560 		leaq	1888(%r13), %rax
 1471      070000
 1472 07ea 4889C3   		movq	%rax, %rbx
 1473 07ed 49C74500 		movq	$1102416563, 0(%r13)
 1473      B38AB541 
 1474 07f5 488D0500 		leaq	.LC4(%rip), %rax
 1474      000000
 1475 07fc 49894508 		movq	%rax, 8(%r13)
 1476 0800 488D059F 		leaq	.LASANPC2344(%rip), %rax
 1476      FFFFFF
 1477 0807 49894510 		movq	%rax, 16(%r13)
 1478 080b 4D89EC   		movq	%r13, %r12
 1479 080e 49C1EC03 		shrq	$3, %r12
 1480 0812 41C78424 		movl	$-235802127, 2147450880(%r12)
 1480      0080FF7F 
 1480      F1F1F1F1 
 1481 081e 41C78424 		movl	$61937, 2147450884(%r12)
 1481      0480FF7F 
 1481      F1F10000 
 1482 082a 41C78424 		movl	$-234881024, 2147450884(%r12)
 1482      0480FF7F 
 1482      000000F2 
 1483 0836 41C78424 		movl	$62194, 2147450888(%r12)
 1483      0880FF7F 
 1483      F2F20000 
 1484 0842 41C78424 		movl	$-234881024, 2147450888(%r12)
 1484      0880FF7F 
 1484      000000F2 
 1485 084e 41C78424 		movl	$62194, 2147450892(%r12)
 1485      0C80FF7F 
 1485      F2F20000 
 1486 085a 41C78424 		movl	$-218959360, 2147450896(%r12)
 1486      1080FF7F 
 1486      00F2F2F2 
 1487 0866 41C78424 		movl	$62194, 2147450900(%r12)
 1487      1480FF7F 
 1487      F2F20000 
 1488 0872 41C78424 		movl	$-218959360, 2147450904(%r12)
 1488      1880FF7F 
 1488      00F2F2F2 
 1489 087e 41C78424 		movl	$62194, 2147450908(%r12)
 1489      1C80FF7F 
 1489      F2F20000 
 1490 088a 41C78424 		movl	$-218959360, 2147450912(%r12)
 1490      2080FF7F 
 1490      00F2F2F2 
 1491 0896 41C78424 		movl	$62194, 2147450916(%r12)
 1491      2480FF7F 
 1491      F2F20000 
 1492 08a2 41C78424 		movl	$-218959360, 2147450920(%r12)
 1492      2880FF7F 
 1492      00F2F2F2 
 1493 08ae 41C78424 		movl	$62194, 2147450924(%r12)
 1493      2C80FF7F 
 1493      F2F20000 
 1494 08ba 41C78424 		movl	$-219021312, 2147450928(%r12)
 1494      3080FF7F 
 1494      0000F2F2 
 1495 08c6 41C78424 		movl	$62194, 2147450932(%r12)
 1495      3480FF7F 
 1495      F2F20000 
 1496 08d2 41C78424 		movl	$-219021312, 2147450936(%r12)
 1496      3880FF7F 
 1496      0000F2F2 
 1497 08de 41C78424 		movl	$62194, 2147450940(%r12)
 1497      3C80FF7F 
 1497      F2F20000 
 1498 08ea 41C78424 		movl	$-219021312, 2147450944(%r12)
 1498      4080FF7F 
 1498      0000F2F2 
 1499 08f6 41C78424 		movl	$62194, 2147450948(%r12)
 1499      4480FF7F 
 1499      F2F20000 
 1500 0902 41C78424 		movl	$-219021312, 2147450952(%r12)
 1500      4880FF7F 
 1500      0000F2F2 
 1501 090e 41C78424 		movl	$62194, 2147450956(%r12)
 1501      4C80FF7F 
 1501      F2F20000 
 1502 091a 41C78424 		movl	$-219021312, 2147451020(%r12)
 1502      8C80FF7F 
 1502      0000F2F2 
 1503 0926 41C78424 		movl	$-218959118, 2147451024(%r12)
 1503      9080FF7F 
 1503      F2F2F2F2 
 1504 0932 41C78424 		movl	$62194, 2147451028(%r12)
 1504      9480FF7F 
 1504      F2F20000 
 1505 093e 41C78424 		movl	$-218103808, 2147451092(%r12)
 1505      D480FF7F 
 1505      000000F3 
 1506 094a 41C78424 		movl	$-202116109, 2147451096(%r12)
 1506      D880FF7F 
 1506      F3F3F3F3 
 1507 0956 41C78424 		movl	$-202116109, 2147451100(%r12)
 1507      DC80FF7F 
 1507      F3F3F3F3 
 1508 0962 41C78424 		movl	$-202116109, 2147451104(%r12)
 1508      E080FF7F 
 1508      F3F3F3F3 
 1509 096e 41C78424 		movl	$-202116109, 2147451108(%r12)
 1509      E480FF7F 
 1509      F3F3F3F3 
 1510              		.loc 3 16 12
 1511 097a 64488B04 		movq	%fs:40, %rax
 1511      25280000 
 1511      00
 1512 0983 488945C8 		movq	%rax, -56(%rbp)
 1513 0987 31C0     		xorl	%eax, %eax
  17:/home/arkel/c++/wordle/files/update_word_list.cpp ****   std::ifstream ifs("wordles.txt");
 1514              		.loc 3 17 34
 1515 0989 488D8350 		leaq	-688(%rbx), %rax
 1515      FDFFFF
 1516 0990 BA080000 		movl	$8, %edx
 1516      00
 1517 0995 488D3500 		leaq	.LC5(%rip), %rsi
 1517      000000
 1518 099c 4889C7   		movq	%rax, %rdi
 1519              	.LEHB6:
 1520 099f E8000000 		call	_ZNSt14basic_ifstreamIcSt11char_traitsIcEEC1EPKcSt13_Ios_Openmode@PLT
 1520      00
 1521              	.LEHE6:
  18:/home/arkel/c++/wordle/files/update_word_list.cpp ****   std::ofstream ofs("processed.txt");
 1522              		.loc 3 18 36
 1523 09a4 488D8310 		leaq	-1264(%rbx), %rax
 1523      FBFFFF
 1524 09ab BA100000 		movl	$16, %edx
 1524      00
 1525 09b0 488D3500 		leaq	.LC6(%rip), %rsi
 1525      000000
 1526 09b7 4889C7   		movq	%rax, %rdi
 1527              	.LEHB7:
 1528 09ba E8000000 		call	_ZNSt14basic_ofstreamIcSt11char_traitsIcEEC1EPKcSt13_Ios_Openmode@PLT
 1528      00
 1529              	.LEHE7:
  19:/home/arkel/c++/wordle/files/update_word_list.cpp ****   if (!ifs.is_open() || !ofs.is_open()) return 1;
 1530              		.loc 3 19 19
 1531 09bf 488D8350 		leaq	-688(%rbx), %rax
 1531      FDFFFF
 1532 09c6 4889C2   		movq	%rax, %rdx
 1533 09c9 48C1EA03 		shrq	$3, %rdx
 1534 09cd 4881C200 		addq	$2147450880, %rdx
 1534      80FF7F
 1535 09d4 0FB612   		movzbl	(%rdx), %edx
 1536 09d7 84D2     		testb	%dl, %dl
 1537 09d9 7408     		je	.L73
 1538 09db 4889C7   		movq	%rax, %rdi
 1539 09de E8000000 		call	__asan_report_load8@PLT
 1539      00
 1540              	.L73:
 1541 09e3 488B8350 		movq	-688(%rbx), %rax
 1541      FDFFFF
 1542 09ea 4889C2   		movq	%rax, %rdx
 1543 09ed 48B89127 		movabsq	$1323554330416523153, %rax
 1543      68A9A635 
 1543      5E12
 1544 09f7 4831D0   		xorq	%rdx, %rax
 1545 09fa 4889C1   		movq	%rax, %rcx
 1546 09fd 48B8692D 		movabsq	$-7070675565921424023, %rax
 1546      38EB08EA 
 1546      DF9D
 1547 0a07 480FAFC1 		imulq	%rcx, %rax
 1548 0a0b 4889C1   		movq	%rax, %rcx
 1549 0a0e 48C1E12F 		salq	$47, %rcx
 1550 0a12 4831D0   		xorq	%rdx, %rax
 1551 0a15 4831C1   		xorq	%rax, %rcx
 1552 0a18 4889CA   		movq	%rcx, %rdx
 1553 0a1b 48B8692D 		movabsq	$-7070675565921424023, %rax
 1553      38EB08EA 
 1553      DF9D
 1554 0a25 480FAFC2 		imulq	%rdx, %rax
 1555 0a29 4889C2   		movq	%rax, %rdx
 1556 0a2c 48C1E22F 		salq	$47, %rdx
 1557 0a30 4831C2   		xorq	%rax, %rdx
 1558 0a33 48B8692D 		movabsq	$-7070675565921424023, %rax
 1558      38EB08EA 
 1558      DF9D
 1559 0a3d 480FAFC2 		imulq	%rdx, %rax
 1560 0a41 4889C2   		movq	%rax, %rdx
 1561 0a44 83E27F   		andl	$127, %edx
 1562 0a47 488D0CD5 		leaq	0(,%rdx,8), %rcx
 1562      00000000 
 1563 0a4f 488D1500 		leaq	__ubsan_vptr_type_cache(%rip), %rdx
 1563      000000
 1564 0a56 488B1411 		movq	(%rcx,%rdx), %rdx
 1565 0a5a 4839C2   		cmpq	%rax, %rdx
 1566 0a5d 7419     		je	.L74
 1567 0a5f 488D8B50 		leaq	-688(%rbx), %rcx
 1567      FDFFFF
 1568 0a66 4889C2   		movq	%rax, %rdx
 1569 0a69 4889CE   		movq	%rcx, %rsi
 1570 0a6c 488D3D00 		leaq	.Lubsan_data393(%rip), %rdi
 1570      000000
 1571 0a73 E8000000 		call	__ubsan_handle_dynamic_type_cache_miss@PLT
 1571      00
 1572              	.L74:
 1573 0a78 488D8350 		leaq	-688(%rbx), %rax
 1573      FDFFFF
 1574 0a7f 4889C7   		movq	%rax, %rdi
 1575              	.LEHB8:
 1576 0a82 E8000000 		call	_ZNSt14basic_ifstreamIcSt11char_traitsIcEE7is_openEv@PLT
 1576      00
 1577              		.loc 3 19 7
 1578 0a87 83F001   		xorl	$1, %eax
 1579              		.loc 3 19 22
 1580 0a8a 84C0     		testb	%al, %al
 1581 0a8c 0F85CF00 		jne	.L75
 1581      0000
 1582              		.loc 3 19 37 discriminator 3
 1583 0a92 488D8310 		leaq	-1264(%rbx), %rax
 1583      FBFFFF
 1584 0a99 4889C2   		movq	%rax, %rdx
 1585 0a9c 48C1EA03 		shrq	$3, %rdx
 1586 0aa0 4881C200 		addq	$2147450880, %rdx
 1586      80FF7F
 1587 0aa7 0FB612   		movzbl	(%rdx), %edx
 1588 0aaa 84D2     		testb	%dl, %dl
 1589 0aac 7408     		je	.L76
 1590              		.loc 3 19 37 is_stmt 0
 1591 0aae 4889C7   		movq	%rax, %rdi
 1592 0ab1 E8000000 		call	__asan_report_load8@PLT
 1592      00
 1593              	.L76:
 1594              		.loc 3 19 37 discriminator 3
 1595 0ab6 488B8310 		movq	-1264(%rbx), %rax
 1595      FBFFFF
 1596 0abd 4889C2   		movq	%rax, %rdx
 1597 0ac0 48B8F313 		movabsq	$-7890976370364771341, %rax
 1597      68A1CC9E 
 1597      7D92
 1598 0aca 4831D0   		xorq	%rdx, %rax
 1599 0acd 4889C1   		movq	%rax, %rcx
 1600 0ad0 48B8692D 		movabsq	$-7070675565921424023, %rax
 1600      38EB08EA 
 1600      DF9D
 1601 0ada 480FAFC1 		imulq	%rcx, %rax
 1602 0ade 4889C1   		movq	%rax, %rcx
 1603 0ae1 48C1E12F 		salq	$47, %rcx
 1604 0ae5 4831D0   		xorq	%rdx, %rax
 1605 0ae8 4831C1   		xorq	%rax, %rcx
 1606 0aeb 4889CA   		movq	%rcx, %rdx
 1607 0aee 48B8692D 		movabsq	$-7070675565921424023, %rax
 1607      38EB08EA 
 1607      DF9D
 1608 0af8 480FAFC2 		imulq	%rdx, %rax
 1609 0afc 4889C2   		movq	%rax, %rdx
 1610 0aff 48C1E22F 		salq	$47, %rdx
 1611 0b03 4831C2   		xorq	%rax, %rdx
 1612 0b06 48B8692D 		movabsq	$-7070675565921424023, %rax
 1612      38EB08EA 
 1612      DF9D
 1613 0b10 480FAFC2 		imulq	%rdx, %rax
 1614 0b14 4889C2   		movq	%rax, %rdx
 1615 0b17 83E27F   		andl	$127, %edx
 1616 0b1a 488D0CD5 		leaq	0(,%rdx,8), %rcx
 1616      00000000 
 1617 0b22 488D1500 		leaq	__ubsan_vptr_type_cache(%rip), %rdx
 1617      000000
 1618 0b29 488B1411 		movq	(%rcx,%rdx), %rdx
 1619 0b2d 4839C2   		cmpq	%rax, %rdx
 1620 0b30 7419     		je	.L77
 1621              		.loc 3 19 37
 1622 0b32 488D8B10 		leaq	-1264(%rbx), %rcx
 1622      FBFFFF
 1623 0b39 4889C2   		movq	%rax, %rdx
 1624 0b3c 4889CE   		movq	%rcx, %rsi
 1625 0b3f 488D3D00 		leaq	.Lubsan_data394(%rip), %rdi
 1625      000000
 1626 0b46 E8000000 		call	__ubsan_handle_dynamic_type_cache_miss@PLT
 1626      00
 1627              	.L77:
 1628              		.loc 3 19 37 discriminator 3
 1629 0b4b 488D8310 		leaq	-1264(%rbx), %rax
 1629      FBFFFF
 1630 0b52 4889C7   		movq	%rax, %rdi
 1631 0b55 E8000000 		call	_ZNSt14basic_ofstreamIcSt11char_traitsIcEE7is_openEv@PLT
 1631      00
 1632              	.LEHE8:
 1633              		.loc 3 19 25 is_stmt 1 discriminator 3
 1634 0b5a 83F001   		xorl	$1, %eax
 1635              		.loc 3 19 22 discriminator 3
 1636 0b5d 84C0     		testb	%al, %al
 1637 0b5f 7407     		je	.L78
 1638              	.L75:
 1639              		.loc 3 19 22 is_stmt 0 discriminator 5
 1640 0b61 B8010000 		movl	$1, %eax
 1640      00
 1641 0b66 EB05     		jmp	.L79
 1642              	.L78:
 1643              		.loc 3 19 22 discriminator 6
 1644 0b68 B8000000 		movl	$0, %eax
 1644      00
 1645              	.L79:
 1646              		.loc 3 19 3 is_stmt 1 discriminator 8
 1647 0b6d 84C0     		testb	%al, %al
 1648 0b6f 7415     		je	.L80
 1649              		.loc 3 19 48 discriminator 9
 1650 0b71 C7856CF8 		movl	$1, -1940(%rbp)
 1650      FFFF0100 
 1650      0000
 1651 0b7b 41BE0000 		movl	$0, %r14d
 1651      0000
 1652 0b81 E98B0800 		jmp	.L81
 1652      00
 1653              	.L80:
  20:/home/arkel/c++/wordle/files/update_word_list.cpp ****   std::vector<std::string> removed_dates;
 1654              		.loc 3 20 28
 1655 0b86 488D8310 		leaq	-1776(%rbx), %rax
 1655      F9FFFF
 1656 0b8d 4889C7   		movq	%rax, %rdi
 1657 0b90 E8000000 		call	_ZNSt6vectorINSt7__cxx1112basic_stringIcSt11char_traitsIcESaIcEEESaIS5_EEC1Ev
 1657      00
  21:/home/arkel/c++/wordle/files/update_word_list.cpp ****   std::string line;
 1658              		.loc 3 21 15
 1659 0b95 488D8310 		leaq	-1520(%rbx), %rax
 1659      FAFFFF
 1660 0b9c 4889C7   		movq	%rax, %rdi
 1661 0b9f E8000000 		call	_ZNSt7__cxx1112basic_stringIcSt11char_traitsIcESaIcEEC1Ev@PLT
 1661      00
  22:/home/arkel/c++/wordle/files/update_word_list.cpp ****   std::getline(ifs, line);
 1662              		.loc 3 22 25
 1663 0ba4 488D9310 		leaq	-1520(%rbx), %rdx
 1663      FAFFFF
 1664 0bab 488D8350 		leaq	-688(%rbx), %rax
 1664      FDFFFF
 1665 0bb2 4889D6   		movq	%rdx, %rsi
 1666 0bb5 4889C7   		movq	%rax, %rdi
 1667              	.LEHB9:
 1668 0bb8 E8000000 		call	_ZSt7getlineIcSt11char_traitsIcESaIcEERSt13basic_istreamIT_T0_ES7_RNSt7__cxx1112basic_stringI
 1668      00
 1669              	.L110:
  23:/home/arkel/c++/wordle/files/update_word_list.cpp ****   while (!ifs.eof() && !line.empty()) {
 1670              		.loc 3 23 18
 1671 0bbd 488D8350 		leaq	-688(%rbx), %rax
 1671      FDFFFF
 1672 0bc4 48050001 		addq	$256, %rax
 1672      0000
 1673 0bca 4889C2   		movq	%rax, %rdx
 1674 0bcd 48C1EA03 		shrq	$3, %rdx
 1675 0bd1 4881C200 		addq	$2147450880, %rdx
 1675      80FF7F
 1676 0bd8 0FB612   		movzbl	(%rdx), %edx
 1677 0bdb 84D2     		testb	%dl, %dl
 1678 0bdd 7408     		je	.L82
 1679 0bdf 4889C7   		movq	%rax, %rdi
 1680 0be2 E8000000 		call	__asan_report_load8@PLT
 1680      00
 1681              	.L82:
 1682 0be7 488B8350 		movq	-432(%rbx), %rax
 1682      FEFFFF
 1683 0bee 4889C2   		movq	%rax, %rdx
 1684 0bf1 48B8A56E 		movabsq	$8135312701535973029, %rax
 1684      C69FCC6F 
 1684      E670
 1685 0bfb 4831D0   		xorq	%rdx, %rax
 1686 0bfe 4889C1   		movq	%rax, %rcx
 1687 0c01 48B8692D 		movabsq	$-7070675565921424023, %rax
 1687      38EB08EA 
 1687      DF9D
 1688 0c0b 480FAFC1 		imulq	%rcx, %rax
 1689 0c0f 4889C1   		movq	%rax, %rcx
 1690 0c12 48C1E12F 		salq	$47, %rcx
 1691 0c16 4831D0   		xorq	%rdx, %rax
 1692 0c19 4831C1   		xorq	%rax, %rcx
 1693 0c1c 4889CA   		movq	%rcx, %rdx
 1694 0c1f 48B8692D 		movabsq	$-7070675565921424023, %rax
 1694      38EB08EA 
 1694      DF9D
 1695 0c29 480FAFC2 		imulq	%rdx, %rax
 1696 0c2d 4889C2   		movq	%rax, %rdx
 1697 0c30 48C1E22F 		salq	$47, %rdx
 1698 0c34 4831C2   		xorq	%rax, %rdx
 1699 0c37 48B8692D 		movabsq	$-7070675565921424023, %rax
 1699      38EB08EA 
 1699      DF9D
 1700 0c41 480FAFC2 		imulq	%rdx, %rax
 1701 0c45 4889C2   		movq	%rax, %rdx
 1702 0c48 83E27F   		andl	$127, %edx
 1703 0c4b 488D0CD5 		leaq	0(,%rdx,8), %rcx
 1703      00000000 
 1704 0c53 488D1500 		leaq	__ubsan_vptr_type_cache(%rip), %rdx
 1704      000000
 1705 0c5a 488B1411 		movq	(%rcx,%rdx), %rdx
 1706 0c5e 4839C2   		cmpq	%rax, %rdx
 1707 0c61 7420     		je	.L83
 1708 0c63 488D9350 		leaq	-688(%rbx), %rdx
 1708      FDFFFF
 1709 0c6a 488D8A00 		leaq	256(%rdx), %rcx
 1709      010000
 1710 0c71 4889C2   		movq	%rax, %rdx
 1711 0c74 4889CE   		movq	%rcx, %rsi
 1712 0c77 488D3D00 		leaq	.Lubsan_data395(%rip), %rdi
 1712      000000
 1713 0c7e E8000000 		call	__ubsan_handle_dynamic_type_cache_miss@PLT
 1713      00
 1714              	.L83:
 1715 0c83 488D8350 		leaq	-688(%rbx), %rax
 1715      FDFFFF
 1716 0c8a 48050001 		addq	$256, %rax
 1716      0000
 1717 0c90 4889C7   		movq	%rax, %rdi
 1718 0c93 E8000000 		call	_ZNKSt9basic_iosIcSt11char_traitsIcEE3eofEv@PLT
 1718      00
 1719              		.loc 3 23 10
 1720 0c98 83F001   		xorl	$1, %eax
 1721              		.loc 3 23 21
 1722 0c9b 84C0     		testb	%al, %al
 1723 0c9d 741D     		je	.L84
 1724              		.loc 3 23 35 discriminator 2
 1725 0c9f 488D8310 		leaq	-1520(%rbx), %rax
 1725      FAFFFF
 1726 0ca6 4889C7   		movq	%rax, %rdi
 1727 0ca9 E8000000 		call	_ZNKSt7__cxx1112basic_stringIcSt11char_traitsIcESaIcEE5emptyEv@PLT
 1727      00
 1728              		.loc 3 23 24 discriminator 2
 1729 0cae 83F001   		xorl	$1, %eax
 1730              		.loc 3 23 21 discriminator 2
 1731 0cb1 84C0     		testb	%al, %al
 1732 0cb3 7407     		je	.L84
 1733              		.loc 3 23 21 is_stmt 0 discriminator 4
 1734 0cb5 B8010000 		movl	$1, %eax
 1734      00
 1735 0cba EB05     		jmp	.L85
 1736              	.L84:
 1737              		.loc 3 23 21 discriminator 5
 1738 0cbc B8000000 		movl	$0, %eax
 1738      00
 1739              	.L85:
 1740              		.loc 3 23 21 discriminator 7
 1741 0cc1 84C0     		testb	%al, %al
 1742 0cc3 0F844806 		je	.L86
 1742      0000
  24:/home/arkel/c++/wordle/files/update_word_list.cpp ****     if (line.find('*') != std::string::npos) {
 1743              		.loc 3 24 18 is_stmt 1
 1744 0cc9 488D8310 		leaq	-1520(%rbx), %rax
 1744      FAFFFF
 1745 0cd0 BA000000 		movl	$0, %edx
 1745      00
 1746 0cd5 BE2A0000 		movl	$42, %esi
 1746      00
 1747 0cda 4889C7   		movq	%rax, %rdi
 1748 0cdd E8000000 		call	_ZNKSt7__cxx1112basic_stringIcSt11char_traitsIcESaIcEE4findEcm@PLT
 1748      00
 1749              		.loc 3 24 24
 1750 0ce2 4883F8FF 		cmpq	$-1, %rax
 1751 0ce6 0F95C0   		setne	%al
 1752              		.loc 3 24 5
 1753 0ce9 84C0     		testb	%al, %al
 1754 0ceb 0F848B01 		je	.L87
 1754      0000
  25:/home/arkel/c++/wordle/files/update_word_list.cpp ****       // remove this word
  26:/home/arkel/c++/wordle/files/update_word_list.cpp ****       removed_dates.push_back(date_thing(line)[0]);
 1755              		.loc 3 26 49
 1756 0cf1 488D8350 		leaq	-1712(%rbx), %rax
 1756      F9FFFF
 1757 0cf8 48C1E803 		shrq	$3, %rax
 1758 0cfc 48050080 		addq	$2147450880, %rax
 1758      FF7F
 1759 0d02 66C70000 		movw	$0, (%rax)
 1759      00
 1760 0d07 C6400200 		movb	$0, 2(%rax)
 1761              		.loc 3 26 41
 1762 0d0b 488D8350 		leaq	-1456(%rbx), %rax
 1762      FAFFFF
 1763 0d12 48C1E803 		shrq	$3, %rax
 1764 0d16 48050080 		addq	$2147450880, %rax
 1764      FF7F
 1765 0d1c C7000000 		movl	$0, (%rax)
 1765      0000
 1766 0d22 488D9310 		leaq	-1520(%rbx), %rdx
 1766      FAFFFF
 1767 0d29 488D8350 		leaq	-1456(%rbx), %rax
 1767      FAFFFF
 1768 0d30 4889D6   		movq	%rdx, %rsi
 1769 0d33 4889C7   		movq	%rax, %rdi
 1770 0d36 E8000000 		call	_ZNSt7__cxx1112basic_stringIcSt11char_traitsIcESaIcEEC1ERKS4_@PLT
 1770      00
 1771              	.LEHE9:
 1772              		.loc 3 26 41 is_stmt 0 discriminator 1
 1773 0d3b 488D8350 		leaq	-1712(%rbx), %rax
 1773      F9FFFF
 1774 0d42 4889C2   		movq	%rax, %rdx
 1775 0d45 48C1EA03 		shrq	$3, %rdx
 1776 0d49 4881C200 		addq	$2147450880, %rdx
 1776      80FF7F
 1777 0d50 0FB612   		movzbl	(%rdx), %edx
 1778 0d53 84D2     		testb	%dl, %dl
 1779 0d55 0F95C1   		setne	%cl
 1780 0d58 84D2     		testb	%dl, %dl
 1781 0d5a 0F9EC2   		setle	%dl
 1782 0d5d 89CF     		movl	%ecx, %edi
 1783 0d5f 21D7     		andl	%edx, %edi
 1784 0d61 BA180000 		movl	$24, %edx
 1784      00
 1785 0d66 4883EA01 		subq	$1, %rdx
 1786 0d6a 488D0C10 		leaq	(%rax,%rdx), %rcx
 1787 0d6e 4889CA   		movq	%rcx, %rdx
 1788 0d71 48C1EA03 		shrq	$3, %rdx
 1789 0d75 4881C200 		addq	$2147450880, %rdx
 1789      80FF7F
 1790 0d7c 0FB612   		movzbl	(%rdx), %edx
 1791 0d7f 84D2     		testb	%dl, %dl
 1792 0d81 400F95C6 		setne	%sil
 1793 0d85 83E107   		andl	$7, %ecx
 1794 0d88 38D1     		cmpb	%dl, %cl
 1795 0d8a 0F9DC2   		setge	%dl
 1796 0d8d 21F2     		andl	%esi, %edx
 1797 0d8f 09FA     		orl	%edi, %edx
 1798 0d91 84D2     		testb	%dl, %dl
 1799 0d93 740D     		je	.L88
 1800              		.loc 3 26 41
 1801 0d95 BE180000 		movl	$24, %esi
 1801      00
 1802 0d9a 4889C7   		movq	%rax, %rdi
 1803 0d9d E8000000 		call	__asan_report_store_n@PLT
 1803      00
 1804              	.L88:
 1805              		.loc 3 26 41 discriminator 1
 1806 0da2 488D8350 		leaq	-1712(%rbx), %rax
 1806      F9FFFF
 1807 0da9 488D9350 		leaq	-1456(%rbx), %rdx
 1807      FAFFFF
 1808 0db0 4889D6   		movq	%rdx, %rsi
 1809 0db3 4889C7   		movq	%rax, %rdi
 1810              	.LEHB10:
 1811 0db6 E8000000 		call	_Z10date_thingNSt7__cxx1112basic_stringIcSt11char_traitsIcESaIcEEE
 1811      00
 1812              	.LEHE10:
 1813              		.loc 3 26 41 discriminator 3
 1814 0dbb 4C8DB350 		leaq	-1712(%rbx), %r14
 1814      F9FFFF
 1815              		.loc 3 26 49 is_stmt 1 discriminator 3
 1816 0dc2 4C89F0   		movq	%r14, %rax
 1817 0dc5 4D85F6   		testq	%r14, %r14
 1818 0dc8 740B     		je	.L89
 1819 0dca 4889C2   		movq	%rax, %rdx
 1820 0dcd 83E207   		andl	$7, %edx
 1821 0dd0 4885D2   		testq	%rdx, %rdx
 1822 0dd3 740F     		je	.L90
 1823              	.L89:
 1824              		.loc 3 26 49 is_stmt 0
 1825 0dd5 4889C6   		movq	%rax, %rsi
 1826 0dd8 488D3D00 		leaq	.Lubsan_data396(%rip), %rdi
 1826      000000
 1827 0ddf E8000000 		call	__ubsan_handle_type_mismatch_v1@PLT
 1827      00
 1828              	.L90:
 1829              		.loc 3 26 49 discriminator 3
 1830 0de4 BE000000 		movl	$0, %esi
 1830      00
 1831 0de9 4C89F7   		movq	%r14, %rdi
 1832 0dec E8000000 		call	_ZNSt6vectorINSt7__cxx1112basic_stringIcSt11char_traitsIcESaIcEEESaIS5_EEixEm
 1832      00
 1833 0df1 4989C6   		movq	%rax, %r14
 1834              		.loc 3 26 30 is_stmt 1 discriminator 3
 1835 0df4 4C89F0   		movq	%r14, %rax
 1836 0df7 4D85F6   		testq	%r14, %r14
 1837 0dfa 740B     		je	.L91
 1838 0dfc 4889C2   		movq	%rax, %rdx
 1839 0dff 83E207   		andl	$7, %edx
 1840 0e02 4885D2   		testq	%rdx, %rdx
 1841 0e05 740F     		je	.L92
 1842              	.L91:
 1843              		.loc 3 26 30 is_stmt 0
 1844 0e07 4889C6   		movq	%rax, %rsi
 1845 0e0a 488D3D00 		leaq	.Lubsan_data397(%rip), %rdi
 1845      000000
 1846 0e11 E8000000 		call	__ubsan_handle_type_mismatch_v1@PLT
 1846      00
 1847              	.L92:
 1848              		.loc 3 26 30 discriminator 3
 1849 0e16 488D8310 		leaq	-1776(%rbx), %rax
 1849      F9FFFF
 1850 0e1d 4C89F6   		movq	%r14, %rsi
 1851 0e20 4889C7   		movq	%rax, %rdi
 1852              	.LEHB11:
 1853 0e23 E8000000 		call	_ZNSt6vectorINSt7__cxx1112basic_stringIcSt11char_traitsIcESaIcEEESaIS5_EE9push_backERKS5_
 1853      00
 1854              	.LEHE11:
 1855              		.loc 3 26 41 is_stmt 1 discriminator 5
 1856 0e28 488D8350 		leaq	-1712(%rbx), %rax
 1856      F9FFFF
 1857 0e2f 4889C7   		movq	%rax, %rdi
 1858 0e32 E8000000 		call	_ZNSt6vectorINSt7__cxx1112basic_stringIcSt11char_traitsIcESaIcEEESaIS5_EED1Ev
 1858      00
 1859 0e37 488D8350 		leaq	-1712(%rbx), %rax
 1859      F9FFFF
 1860 0e3e 48C1E803 		shrq	$3, %rax
 1861 0e42 48050080 		addq	$2147450880, %rax
 1861      FF7F
 1862 0e48 66C700F8 		movw	$-1800, (%rax)
 1862      F8
 1863 0e4d C64002F8 		movb	$-8, 2(%rax)
 1864 0e51 488D8350 		leaq	-1456(%rbx), %rax
 1864      FAFFFF
 1865 0e58 4889C7   		movq	%rax, %rdi
 1866 0e5b E8000000 		call	_ZNSt7__cxx1112basic_stringIcSt11char_traitsIcESaIcEED1Ev@PLT
 1866      00
 1867 0e60 488D8350 		leaq	-1456(%rbx), %rax
 1867      FAFFFF
 1868 0e67 48C1E803 		shrq	$3, %rax
 1869 0e6b 48050080 		addq	$2147450880, %rax
 1869      FF7F
 1870 0e71 C700F8F8 		movl	$-117901064, (%rax)
 1870      F8F8
 1871 0e77 E9770400 		jmp	.L93
 1871      00
 1872              	.L87:
  27:/home/arkel/c++/wordle/files/update_word_list.cpp ****     } else {
  28:/home/arkel/c++/wordle/files/update_word_list.cpp ****       removed_dates.push_back(date_thing(line)[0]);
 1873              		.loc 3 28 49
 1874 0e7c 488D8390 		leaq	-1648(%rbx), %rax
 1874      F9FFFF
 1875 0e83 48C1E803 		shrq	$3, %rax
 1876 0e87 48050080 		addq	$2147450880, %rax
 1876      FF7F
 1877 0e8d 66C70000 		movw	$0, (%rax)
 1877      00
 1878 0e92 C6400200 		movb	$0, 2(%rax)
 1879              		.loc 3 28 41
 1880 0e96 488D8390 		leaq	-1392(%rbx), %rax
 1880      FAFFFF
 1881 0e9d 48C1E803 		shrq	$3, %rax
 1882 0ea1 48050080 		addq	$2147450880, %rax
 1882      FF7F
 1883 0ea7 C7000000 		movl	$0, (%rax)
 1883      0000
 1884 0ead 488D9310 		leaq	-1520(%rbx), %rdx
 1884      FAFFFF
 1885 0eb4 488D8390 		leaq	-1392(%rbx), %rax
 1885      FAFFFF
 1886 0ebb 4889D6   		movq	%rdx, %rsi
 1887 0ebe 4889C7   		movq	%rax, %rdi
 1888              	.LEHB12:
 1889 0ec1 E8000000 		call	_ZNSt7__cxx1112basic_stringIcSt11char_traitsIcESaIcEEC1ERKS4_@PLT
 1889      00
 1890              	.LEHE12:
 1891              		.loc 3 28 41 is_stmt 0 discriminator 1
 1892 0ec6 488D8390 		leaq	-1648(%rbx), %rax
 1892      F9FFFF
 1893 0ecd 4889C2   		movq	%rax, %rdx
 1894 0ed0 48C1EA03 		shrq	$3, %rdx
 1895 0ed4 4881C200 		addq	$2147450880, %rdx
 1895      80FF7F
 1896 0edb 0FB612   		movzbl	(%rdx), %edx
 1897 0ede 84D2     		testb	%dl, %dl
 1898 0ee0 0F95C1   		setne	%cl
 1899 0ee3 84D2     		testb	%dl, %dl
 1900 0ee5 0F9EC2   		setle	%dl
 1901 0ee8 89CF     		movl	%ecx, %edi
 1902 0eea 21D7     		andl	%edx, %edi
 1903 0eec BA180000 		movl	$24, %edx
 1903      00
 1904 0ef1 4883EA01 		subq	$1, %rdx
 1905 0ef5 488D0C10 		leaq	(%rax,%rdx), %rcx
 1906 0ef9 4889CA   		movq	%rcx, %rdx
 1907 0efc 48C1EA03 		shrq	$3, %rdx
 1908 0f00 4881C200 		addq	$2147450880, %rdx
 1908      80FF7F
 1909 0f07 0FB612   		movzbl	(%rdx), %edx
 1910 0f0a 84D2     		testb	%dl, %dl
 1911 0f0c 400F95C6 		setne	%sil
 1912 0f10 83E107   		andl	$7, %ecx
 1913 0f13 38D1     		cmpb	%dl, %cl
 1914 0f15 0F9DC2   		setge	%dl
 1915 0f18 21F2     		andl	%esi, %edx
 1916 0f1a 09FA     		orl	%edi, %edx
 1917 0f1c 84D2     		testb	%dl, %dl
 1918 0f1e 740D     		je	.L94
 1919              		.loc 3 28 41
 1920 0f20 BE180000 		movl	$24, %esi
 1920      00
 1921 0f25 4889C7   		movq	%rax, %rdi
 1922 0f28 E8000000 		call	__asan_report_store_n@PLT
 1922      00
 1923              	.L94:
 1924              		.loc 3 28 41 discriminator 1
 1925 0f2d 488D8390 		leaq	-1648(%rbx), %rax
 1925      F9FFFF
 1926 0f34 488D9390 		leaq	-1392(%rbx), %rdx
 1926      FAFFFF
 1927 0f3b 4889D6   		movq	%rdx, %rsi
 1928 0f3e 4889C7   		movq	%rax, %rdi
 1929              	.LEHB13:
 1930 0f41 E8000000 		call	_Z10date_thingNSt7__cxx1112basic_stringIcSt11char_traitsIcESaIcEEE
 1930      00
 1931              	.LEHE13:
 1932              		.loc 3 28 41 discriminator 3
 1933 0f46 4C8DB390 		leaq	-1648(%rbx), %r14
 1933      F9FFFF
 1934              		.loc 3 28 49 is_stmt 1 discriminator 3
 1935 0f4d 4C89F0   		movq	%r14, %rax
 1936 0f50 4D85F6   		testq	%r14, %r14
 1937 0f53 740B     		je	.L95
 1938 0f55 4889C2   		movq	%rax, %rdx
 1939 0f58 83E207   		andl	$7, %edx
 1940 0f5b 4885D2   		testq	%rdx, %rdx
 1941 0f5e 740F     		je	.L96
 1942              	.L95:
 1943              		.loc 3 28 49 is_stmt 0
 1944 0f60 4889C6   		movq	%rax, %rsi
 1945 0f63 488D3D00 		leaq	.Lubsan_data398(%rip), %rdi
 1945      000000
 1946 0f6a E8000000 		call	__ubsan_handle_type_mismatch_v1@PLT
 1946      00
 1947              	.L96:
 1948              		.loc 3 28 49 discriminator 3
 1949 0f6f BE000000 		movl	$0, %esi
 1949      00
 1950 0f74 4C89F7   		movq	%r14, %rdi
 1951 0f77 E8000000 		call	_ZNSt6vectorINSt7__cxx1112basic_stringIcSt11char_traitsIcESaIcEEESaIS5_EEixEm
 1951      00
 1952 0f7c 4989C6   		movq	%rax, %r14
 1953              		.loc 3 28 30 is_stmt 1 discriminator 3
 1954 0f7f 4C89F0   		movq	%r14, %rax
 1955 0f82 4D85F6   		testq	%r14, %r14
 1956 0f85 740B     		je	.L97
 1957 0f87 4889C2   		movq	%rax, %rdx
 1958 0f8a 83E207   		andl	$7, %edx
 1959 0f8d 4885D2   		testq	%rdx, %rdx
 1960 0f90 740F     		je	.L98
 1961              	.L97:
 1962              		.loc 3 28 30 is_stmt 0
 1963 0f92 4889C6   		movq	%rax, %rsi
 1964 0f95 488D3D00 		leaq	.Lubsan_data399(%rip), %rdi
 1964      000000
 1965 0f9c E8000000 		call	__ubsan_handle_type_mismatch_v1@PLT
 1965      00
 1966              	.L98:
 1967              		.loc 3 28 30 discriminator 3
 1968 0fa1 488D8310 		leaq	-1776(%rbx), %rax
 1968      F9FFFF
 1969 0fa8 4C89F6   		movq	%r14, %rsi
 1970 0fab 4889C7   		movq	%rax, %rdi
 1971              	.LEHB14:
 1972 0fae E8000000 		call	_ZNSt6vectorINSt7__cxx1112basic_stringIcSt11char_traitsIcESaIcEEESaIS5_EE9push_backERKS5_
 1972      00
 1973              	.LEHE14:
 1974              		.loc 3 28 41 is_stmt 1 discriminator 5
 1975 0fb3 488D8390 		leaq	-1648(%rbx), %rax
 1975      F9FFFF
 1976 0fba 4889C7   		movq	%rax, %rdi
 1977 0fbd E8000000 		call	_ZNSt6vectorINSt7__cxx1112basic_stringIcSt11char_traitsIcESaIcEEESaIS5_EED1Ev
 1977      00
 1978 0fc2 488D8390 		leaq	-1648(%rbx), %rax
 1978      F9FFFF
 1979 0fc9 48C1E803 		shrq	$3, %rax
 1980 0fcd 48050080 		addq	$2147450880, %rax
 1980      FF7F
 1981 0fd3 66C700F8 		movw	$-1800, (%rax)
 1981      F8
 1982 0fd8 C64002F8 		movb	$-8, 2(%rax)
 1983 0fdc 488D8390 		leaq	-1392(%rbx), %rax
 1983      FAFFFF
 1984 0fe3 4889C7   		movq	%rax, %rdi
 1985 0fe6 E8000000 		call	_ZNSt7__cxx1112basic_stringIcSt11char_traitsIcESaIcEED1Ev@PLT
 1985      00
 1986 0feb 488D8390 		leaq	-1392(%rbx), %rax
 1986      FAFFFF
 1987 0ff2 48C1E803 		shrq	$3, %rax
 1988 0ff6 48050080 		addq	$2147450880, %rax
 1988      FF7F
 1989 0ffc C700F8F8 		movl	$-117901064, (%rax)
 1989      F8F8
  29:/home/arkel/c++/wordle/files/update_word_list.cpp ****       ofs << removed_dates[0] << ' ' << date_thing(line)[1] << '\n';
 1990              		.loc 3 29 29 discriminator 5
 1991 1002 488D8310 		leaq	-1776(%rbx), %rax
 1991      F9FFFF
 1992 1009 BE000000 		movl	$0, %esi
 1992      00
 1993 100e 4889C7   		movq	%rax, %rdi
 1994 1011 E8000000 		call	_ZNSt6vectorINSt7__cxx1112basic_stringIcSt11char_traitsIcESaIcEEESaIS5_EEixEm
 1994      00
 1995 1016 4989C6   		movq	%rax, %r14
 1996              		.loc 3 29 64 discriminator 5
 1997 1019 4C89F0   		movq	%r14, %rax
 1998 101c 4D85F6   		testq	%r14, %r14
 1999 101f 740B     		je	.L99
 2000 1021 4889C2   		movq	%rax, %rdx
 2001 1024 83E207   		andl	$7, %edx
 2002 1027 4885D2   		testq	%rdx, %rdx
 2003 102a 740F     		je	.L100
 2004              	.L99:
 2005              		.loc 3 29 64 is_stmt 0
 2006 102c 4889C6   		movq	%rax, %rsi
 2007 102f 488D3D00 		leaq	.Lubsan_data400(%rip), %rdi
 2007      000000
 2008 1036 E8000000 		call	__ubsan_handle_type_mismatch_v1@PLT
 2008      00
 2009              	.L100:
 2010              		.loc 3 29 64 discriminator 5
 2011 103b 488D8310 		leaq	-1264(%rbx), %rax
 2011      FBFFFF
 2012 1042 4C89F6   		movq	%r14, %rsi
 2013 1045 4889C7   		movq	%rax, %rdi
 2014              	.LEHB15:
 2015 1048 E8000000 		call	_ZStlsIcSt11char_traitsIcESaIcEERSt13basic_ostreamIT_T0_ES7_RKNSt7__cxx1112basic_stringIS4_S5
 2015      00
 2016 104d BE200000 		movl	$32, %esi
 2016      00
 2017 1052 4889C7   		movq	%rax, %rdi
 2018 1055 E8000000 		call	_ZStlsISt11char_traitsIcEERSt13basic_ostreamIcT_ES5_c@PLT
 2018      00
 2019              		.loc 3 29 64 discriminator 1
 2020 105a 48898560 		movq	%rax, -1952(%rbp)
 2020      F8FFFF
 2021              		.loc 3 29 59 is_stmt 1 discriminator 1
 2022 1061 488D83D0 		leaq	-1584(%rbx), %rax
 2022      F9FFFF
 2023 1068 48C1E803 		shrq	$3, %rax
 2024 106c 48050080 		addq	$2147450880, %rax
 2024      FF7F
 2025 1072 66C70000 		movw	$0, (%rax)
 2025      00
 2026 1077 C6400200 		movb	$0, 2(%rax)
 2027              		.loc 3 29 51 discriminator 1
 2028 107b 488D83D0 		leaq	-1328(%rbx), %rax
 2028      FAFFFF
 2029 1082 48C1E803 		shrq	$3, %rax
 2030 1086 48050080 		addq	$2147450880, %rax
 2030      FF7F
 2031 108c C7000000 		movl	$0, (%rax)
 2031      0000
 2032 1092 488D9310 		leaq	-1520(%rbx), %rdx
 2032      FAFFFF
 2033 1099 488D83D0 		leaq	-1328(%rbx), %rax
 2033      FAFFFF
 2034 10a0 4889D6   		movq	%rdx, %rsi
 2035 10a3 4889C7   		movq	%rax, %rdi
 2036 10a6 E8000000 		call	_ZNSt7__cxx1112basic_stringIcSt11char_traitsIcESaIcEEC1ERKS4_@PLT
 2036      00
 2037              	.LEHE15:
 2038              		.loc 3 29 51 is_stmt 0 discriminator 3
 2039 10ab 488D83D0 		leaq	-1584(%rbx), %rax
 2039      F9FFFF
 2040 10b2 4889C2   		movq	%rax, %rdx
 2041 10b5 48C1EA03 		shrq	$3, %rdx
 2042 10b9 4881C200 		addq	$2147450880, %rdx
 2042      80FF7F
 2043 10c0 0FB612   		movzbl	(%rdx), %edx
 2044 10c3 84D2     		testb	%dl, %dl
 2045 10c5 0F95C1   		setne	%cl
 2046 10c8 84D2     		testb	%dl, %dl
 2047 10ca 0F9EC2   		setle	%dl
 2048 10cd 89CF     		movl	%ecx, %edi
 2049 10cf 21D7     		andl	%edx, %edi
 2050 10d1 BA180000 		movl	$24, %edx
 2050      00
 2051 10d6 4883EA01 		subq	$1, %rdx
 2052 10da 488D0C10 		leaq	(%rax,%rdx), %rcx
 2053 10de 4889CA   		movq	%rcx, %rdx
 2054 10e1 48C1EA03 		shrq	$3, %rdx
 2055 10e5 4881C200 		addq	$2147450880, %rdx
 2055      80FF7F
 2056 10ec 0FB612   		movzbl	(%rdx), %edx
 2057 10ef 84D2     		testb	%dl, %dl
 2058 10f1 400F95C6 		setne	%sil
 2059 10f5 83E107   		andl	$7, %ecx
 2060 10f8 38D1     		cmpb	%dl, %cl
 2061 10fa 0F9DC2   		setge	%dl
 2062 10fd 21F2     		andl	%esi, %edx
 2063 10ff 09FA     		orl	%edi, %edx
 2064 1101 84D2     		testb	%dl, %dl
 2065 1103 740D     		je	.L101
 2066              		.loc 3 29 51
 2067 1105 BE180000 		movl	$24, %esi
 2067      00
 2068 110a 4889C7   		movq	%rax, %rdi
 2069 110d E8000000 		call	__asan_report_store_n@PLT
 2069      00
 2070              	.L101:
 2071              		.loc 3 29 51 discriminator 3
 2072 1112 488D83D0 		leaq	-1584(%rbx), %rax
 2072      F9FFFF
 2073 1119 488D93D0 		leaq	-1328(%rbx), %rdx
 2073      FAFFFF
 2074 1120 4889D6   		movq	%rdx, %rsi
 2075 1123 4889C7   		movq	%rax, %rdi
 2076              	.LEHB16:
 2077 1126 E8000000 		call	_Z10date_thingNSt7__cxx1112basic_stringIcSt11char_traitsIcESaIcEEE
 2077      00
 2078              	.LEHE16:
 2079              		.loc 3 29 51 discriminator 5
 2080 112b 4C8DB3D0 		leaq	-1584(%rbx), %r14
 2080      F9FFFF
 2081              		.loc 3 29 59 is_stmt 1 discriminator 5
 2082 1132 4C89F0   		movq	%r14, %rax
 2083 1135 4D85F6   		testq	%r14, %r14
 2084 1138 740B     		je	.L102
 2085 113a 4889C2   		movq	%rax, %rdx
 2086 113d 83E207   		andl	$7, %edx
 2087 1140 4885D2   		testq	%rdx, %rdx
 2088 1143 740F     		je	.L103
 2089              	.L102:
 2090              		.loc 3 29 59 is_stmt 0
 2091 1145 4889C6   		movq	%rax, %rsi
 2092 1148 488D3D00 		leaq	.Lubsan_data401(%rip), %rdi
 2092      000000
 2093 114f E8000000 		call	__ubsan_handle_type_mismatch_v1@PLT
 2093      00
 2094              	.L103:
 2095              		.loc 3 29 59 discriminator 5
 2096 1154 BE010000 		movl	$1, %esi
 2096      00
 2097 1159 4C89F7   		movq	%r14, %rdi
 2098 115c E8000000 		call	_ZNSt6vectorINSt7__cxx1112basic_stringIcSt11char_traitsIcESaIcEEESaIS5_EEixEm
 2098      00
 2099 1161 4989C6   		movq	%rax, %r14
 2100              		.loc 3 29 64 is_stmt 1 discriminator 5
 2101 1164 4C89F0   		movq	%r14, %rax
 2102 1167 4D85F6   		testq	%r14, %r14
 2103 116a 740B     		je	.L104
 2104 116c 4889C2   		movq	%rax, %rdx
 2105 116f 83E207   		andl	$7, %edx
 2106 1172 4885D2   		testq	%rdx, %rdx
 2107 1175 740F     		je	.L105
 2108              	.L104:
 2109              		.loc 3 29 64 is_stmt 0
 2110 1177 4889C6   		movq	%rax, %rsi
 2111 117a 488D3D00 		leaq	.Lubsan_data402(%rip), %rdi
 2111      000000
 2112 1181 E8000000 		call	__ubsan_handle_type_mismatch_v1@PLT
 2112      00
 2113              	.L105:
 2114              		.loc 3 29 64 discriminator 5
 2115 1186 4C89F6   		movq	%r14, %rsi
 2116 1189 488BBD60 		movq	-1952(%rbp), %rdi
 2116      F8FFFF
 2117              	.LEHB17:
 2118 1190 E8000000 		call	_ZStlsIcSt11char_traitsIcESaIcEERSt13basic_ostreamIT_T0_ES7_RKNSt7__cxx1112basic_stringIS4_S5
 2118      00
 2119 1195 BE0A0000 		movl	$10, %esi
 2119      00
 2120 119a 4889C7   		movq	%rax, %rdi
 2121 119d E8000000 		call	_ZStlsISt11char_traitsIcEERSt13basic_ostreamIcT_ES5_c@PLT
 2121      00
 2122              	.LEHE17:
 2123              		.loc 3 29 51 is_stmt 1 discriminator 9
 2124 11a2 488D83D0 		leaq	-1584(%rbx), %rax
 2124      F9FFFF
 2125 11a9 4889C7   		movq	%rax, %rdi
 2126 11ac E8000000 		call	_ZNSt6vectorINSt7__cxx1112basic_stringIcSt11char_traitsIcESaIcEEESaIS5_EED1Ev
 2126      00
 2127 11b1 488D83D0 		leaq	-1584(%rbx), %rax
 2127      F9FFFF
 2128 11b8 48C1E803 		shrq	$3, %rax
 2129 11bc 48050080 		addq	$2147450880, %rax
 2129      FF7F
 2130 11c2 66C700F8 		movw	$-1800, (%rax)
 2130      F8
 2131 11c7 C64002F8 		movb	$-8, 2(%rax)
 2132 11cb 488D83D0 		leaq	-1328(%rbx), %rax
 2132      FAFFFF
 2133 11d2 4889C7   		movq	%rax, %rdi
 2134 11d5 E8000000 		call	_ZNSt7__cxx1112basic_stringIcSt11char_traitsIcESaIcEED1Ev@PLT
 2134      00
 2135 11da 488D83D0 		leaq	-1328(%rbx), %rax
 2135      FAFFFF
 2136 11e1 48C1E803 		shrq	$3, %rax
 2137 11e5 48050080 		addq	$2147450880, %rax
 2137      FF7F
 2138 11eb C700F8F8 		movl	$-117901064, (%rax)
 2138      F8F8
  30:/home/arkel/c++/wordle/files/update_word_list.cpp ****       removed_dates.erase(removed_dates.begin()); // pop front
 2139              		.loc 3 30 26 discriminator 9
 2140 11f1 488D83F0 		leaq	-1808(%rbx), %rax
 2140      F8FFFF
 2141 11f8 48C1E803 		shrq	$3, %rax
 2142 11fc 48050080 		addq	$2147450880, %rax
 2142      FF7F
 2143 1202 C60000   		movb	$0, (%rax)
 2144              		.loc 3 30 46 discriminator 9
 2145 1205 488D83D0 		leaq	-1840(%rbx), %rax
 2145      F8FFFF
 2146 120c 48C1E803 		shrq	$3, %rax
 2147 1210 48050080 		addq	$2147450880, %rax
 2147      FF7F
 2148 1216 C60000   		movb	$0, (%rax)
 2149              		.loc 3 30 47 discriminator 9
 2150 1219 488D83D0 		leaq	-1840(%rbx), %rax
 2150      F8FFFF
 2151 1220 4889C2   		movq	%rax, %rdx
 2152 1223 48C1EA03 		shrq	$3, %rdx
 2153 1227 4881C200 		addq	$2147450880, %rdx
 2153      80FF7F
 2154 122e 0FB612   		movzbl	(%rdx), %edx
 2155 1231 84D2     		testb	%dl, %dl
 2156 1233 7408     		je	.L106
 2157              		.loc 3 30 47 is_stmt 0
 2158 1235 4889C7   		movq	%rax, %rdi
 2159 1238 E8000000 		call	__asan_report_store8@PLT
 2159      00
 2160              	.L106:
 2161              		.loc 3 30 47 discriminator 9
 2162 123d 488D8310 		leaq	-1776(%rbx), %rax
 2162      F9FFFF
 2163 1244 4889C7   		movq	%rax, %rdi
 2164 1247 E8000000 		call	_ZNSt6vectorINSt7__cxx1112basic_stringIcSt11char_traitsIcESaIcEEESaIS5_EE5beginEv
 2164      00
 2165 124c 488983D0 		movq	%rax, -1840(%rbx)
 2165      F8FFFF
 2166              		.loc 3 30 46 is_stmt 1 discriminator 9
 2167 1253 4C8DB3D0 		leaq	-1840(%rbx), %r14
 2167      F8FFFF
 2168 125a 4C89F0   		movq	%r14, %rax
 2169 125d 4D85F6   		testq	%r14, %r14
 2170 1260 740B     		je	.L107
 2171 1262 4889C2   		movq	%rax, %rdx
 2172 1265 83E207   		andl	$7, %edx
 2173 1268 4885D2   		testq	%rdx, %rdx
 2174 126b 740F     		je	.L108
 2175              	.L107:
 2176              		.loc 3 30 46 is_stmt 0
 2177 126d 4889C6   		movq	%rax, %rsi
 2178 1270 488D3D00 		leaq	.Lubsan_data403(%rip), %rdi
 2178      000000
 2179 1277 E8000000 		call	__ubsan_handle_type_mismatch_v1@PLT
 2179      00
 2180              	.L108:
 2181              		.loc 3 30 48 is_stmt 1 discriminator 9
 2182 127c 488D83F0 		leaq	-1808(%rbx), %rax
 2182      F8FFFF
 2183 1283 4C89F6   		movq	%r14, %rsi
 2184 1286 4889C7   		movq	%rax, %rdi
 2185 1289 E8000000 		call	_ZN9__gnu_cxx17__normal_iteratorIPKNSt7__cxx1112basic_stringIcSt11char_traitsIcESaIcEEESt6vec
 2185      00
 2186 128e 488D83F0 		leaq	-1808(%rbx), %rax
 2186      F8FFFF
 2187 1295 4889C2   		movq	%rax, %rdx
 2188 1298 48C1EA03 		shrq	$3, %rdx
 2189 129c 4881C200 		addq	$2147450880, %rdx
 2189      80FF7F
 2190 12a3 0FB612   		movzbl	(%rdx), %edx
 2191 12a6 84D2     		testb	%dl, %dl
 2192 12a8 7408     		je	.L109
 2193              		.loc 3 30 48 is_stmt 0
 2194 12aa 4889C7   		movq	%rax, %rdi
 2195 12ad E8000000 		call	__asan_report_load8@PLT
 2195      00
 2196              	.L109:
 2197              		.loc 3 30 48 discriminator 9
 2198 12b2 488B93F0 		movq	-1808(%rbx), %rdx
 2198      F8FFFF
 2199 12b9 488D8310 		leaq	-1776(%rbx), %rax
 2199      F9FFFF
 2200 12c0 4889D6   		movq	%rdx, %rsi
 2201 12c3 4889C7   		movq	%rax, %rdi
 2202              	.LEHB18:
 2203 12c6 E8000000 		call	_ZNSt6vectorINSt7__cxx1112basic_stringIcSt11char_traitsIcESaIcEEESaIS5_EE5eraseEN9__gnu_cxx17
 2203      00
 2204              	.LEHE18:
 2205 12cb 488D83F0 		leaq	-1808(%rbx), %rax
 2205      F8FFFF
 2206 12d2 48C1E803 		shrq	$3, %rax
 2207 12d6 48050080 		addq	$2147450880, %rax
 2207      FF7F
 2208 12dc C600F8   		movb	$-8, (%rax)
 2209              		.loc 3 30 46 is_stmt 1 discriminator 9
 2210 12df 488D83D0 		leaq	-1840(%rbx), %rax
 2210      F8FFFF
 2211 12e6 48C1E803 		shrq	$3, %rax
 2212 12ea 48050080 		addq	$2147450880, %rax
 2212      FF7F
 2213 12f0 C600F8   		movb	$-8, (%rax)
 2214              	.L93:
  31:/home/arkel/c++/wordle/files/update_word_list.cpp ****     }
  32:/home/arkel/c++/wordle/files/update_word_list.cpp ****     std::getline(ifs, line);
 2215              		.loc 3 32 27
 2216 12f3 488D9310 		leaq	-1520(%rbx), %rdx
 2216      FAFFFF
 2217 12fa 488D8350 		leaq	-688(%rbx), %rax
 2217      FDFFFF
 2218 1301 4889D6   		movq	%rdx, %rsi
 2219 1304 4889C7   		movq	%rax, %rdi
 2220              	.LEHB19:
 2221 1307 E8000000 		call	_ZSt7getlineIcSt11char_traitsIcESaIcEERSt13basic_istreamIT_T0_ES7_RNSt7__cxx1112basic_stringI
 2221      00
  23:/home/arkel/c++/wordle/files/update_word_list.cpp ****     if (line.find('*') != std::string::npos) {
 2222              		.loc 3 23 3
 2223 130c E9ACF8FF 		jmp	.L110
 2223      FF
 2224              	.L86:
  33:/home/arkel/c++/wordle/files/update_word_list.cpp ****   }
  34:/home/arkel/c++/wordle/files/update_word_list.cpp ****   ofs << '\n';
 2225              		.loc 3 34 10
 2226 1311 488D8310 		leaq	-1264(%rbx), %rax
 2226      FBFFFF
 2227 1318 BE0A0000 		movl	$10, %esi
 2227      00
 2228 131d 4889C7   		movq	%rax, %rdi
 2229 1320 E8000000 		call	_ZStlsISt11char_traitsIcEERSt13basic_ostreamIcT_ES5_c@PLT
 2229      00
  35:/home/arkel/c++/wordle/files/update_word_list.cpp ****   ofs.close();
 2230              		.loc 3 35 12
 2231 1325 488D8310 		leaq	-1264(%rbx), %rax
 2231      FBFFFF
 2232 132c 4889C2   		movq	%rax, %rdx
 2233 132f 48C1EA03 		shrq	$3, %rdx
 2234 1333 4881C200 		addq	$2147450880, %rdx
 2234      80FF7F
 2235 133a 0FB612   		movzbl	(%rdx), %edx
 2236 133d 84D2     		testb	%dl, %dl
 2237 133f 7408     		je	.L111
 2238 1341 4889C7   		movq	%rax, %rdi
 2239 1344 E8000000 		call	__asan_report_load8@PLT
 2239      00
 2240              	.L111:
 2241 1349 488B8310 		movq	-1264(%rbx), %rax
 2241      FBFFFF
 2242 1350 4889C2   		movq	%rax, %rdx
 2243 1353 48B8F313 		movabsq	$-7890976370364771341, %rax
 2243      68A1CC9E 
 2243      7D92
 2244 135d 4831D0   		xorq	%rdx, %rax
 2245 1360 4889C1   		movq	%rax, %rcx
 2246 1363 48B8692D 		movabsq	$-7070675565921424023, %rax
 2246      38EB08EA 
 2246      DF9D
 2247 136d 480FAFC1 		imulq	%rcx, %rax
 2248 1371 4889C1   		movq	%rax, %rcx
 2249 1374 48C1E12F 		salq	$47, %rcx
 2250 1378 4831D0   		xorq	%rdx, %rax
 2251 137b 4831C1   		xorq	%rax, %rcx
 2252 137e 4889CA   		movq	%rcx, %rdx
 2253 1381 48B8692D 		movabsq	$-7070675565921424023, %rax
 2253      38EB08EA 
 2253      DF9D
 2254 138b 480FAFC2 		imulq	%rdx, %rax
 2255 138f 4889C2   		movq	%rax, %rdx
 2256 1392 48C1E22F 		salq	$47, %rdx
 2257 1396 4831C2   		xorq	%rax, %rdx
 2258 1399 48B8692D 		movabsq	$-7070675565921424023, %rax
 2258      38EB08EA 
 2258      DF9D
 2259 13a3 480FAFC2 		imulq	%rdx, %rax
 2260 13a7 4889C2   		movq	%rax, %rdx
 2261 13aa 83E27F   		andl	$127, %edx
 2262 13ad 488D0CD5 		leaq	0(,%rdx,8), %rcx
 2262      00000000 
 2263 13b5 488D1500 		leaq	__ubsan_vptr_type_cache(%rip), %rdx
 2263      000000
 2264 13bc 488B1411 		movq	(%rcx,%rdx), %rdx
 2265 13c0 4839C2   		cmpq	%rax, %rdx
 2266 13c3 7419     		je	.L112
 2267 13c5 488D8B10 		leaq	-1264(%rbx), %rcx
 2267      FBFFFF
 2268 13cc 4889C2   		movq	%rax, %rdx
 2269 13cf 4889CE   		movq	%rcx, %rsi
 2270 13d2 488D3D00 		leaq	.Lubsan_data404(%rip), %rdi
 2270      000000
 2271 13d9 E8000000 		call	__ubsan_handle_dynamic_type_cache_miss@PLT
 2271      00
 2272              	.L112:
 2273 13de 488D8310 		leaq	-1264(%rbx), %rax
 2273      FBFFFF
 2274 13e5 4889C7   		movq	%rax, %rdi
 2275 13e8 E8000000 		call	_ZNSt14basic_ofstreamIcSt11char_traitsIcEE5closeEv@PLT
 2275      00
 2276              	.LEHE19:
  21:/home/arkel/c++/wordle/files/update_word_list.cpp ****   std::getline(ifs, line);
 2277              		.loc 3 21 15
 2278 13ed 488D8310 		leaq	-1520(%rbx), %rax
 2278      FAFFFF
 2279 13f4 4889C7   		movq	%rax, %rdi
 2280 13f7 E8000000 		call	_ZNSt7__cxx1112basic_stringIcSt11char_traitsIcESaIcEED1Ev@PLT
 2280      00
  20:/home/arkel/c++/wordle/files/update_word_list.cpp ****   std::string line;
 2281              		.loc 3 20 28
 2282 13fc 488D8310 		leaq	-1776(%rbx), %rax
 2282      F9FFFF
 2283 1403 4889C7   		movq	%rax, %rdi
 2284 1406 E8000000 		call	_ZNSt6vectorINSt7__cxx1112basic_stringIcSt11char_traitsIcESaIcEEESaIS5_EED1Ev
 2284      00
 2285 140b 41BE0100 		movl	$1, %r14d
 2285      0000
 2286              	.L81:
 2287 1411 488D8310 		leaq	-1264(%rbx), %rax
 2287      FBFFFF
 2288 1418 4889C2   		movq	%rax, %rdx
 2289 141b 48C1EA03 		shrq	$3, %rdx
 2290 141f 4881C200 		addq	$2147450880, %rdx
 2290      80FF7F
 2291 1426 0FB612   		movzbl	(%rdx), %edx
 2292 1429 84D2     		testb	%dl, %dl
 2293 142b 7408     		je	.L113
 2294 142d 4889C7   		movq	%rax, %rdi
 2295 1430 E8000000 		call	__asan_report_load8@PLT
 2295      00
 2296              	.L113:
 2297 1435 488B8310 		movq	-1264(%rbx), %rax
 2297      FBFFFF
 2298 143c 4889C2   		movq	%rax, %rdx
 2299 143f 48B8F313 		movabsq	$-7890976370364771341, %rax
 2299      68A1CC9E 
 2299      7D92
 2300 1449 4831D0   		xorq	%rdx, %rax
 2301 144c 4889C1   		movq	%rax, %rcx
 2302 144f 48B8692D 		movabsq	$-7070675565921424023, %rax
 2302      38EB08EA 
 2302      DF9D
 2303 1459 480FAFC1 		imulq	%rcx, %rax
 2304 145d 4889C1   		movq	%rax, %rcx
 2305 1460 48C1E12F 		salq	$47, %rcx
 2306 1464 4831D0   		xorq	%rdx, %rax
 2307 1467 4831C1   		xorq	%rax, %rcx
 2308 146a 4889CA   		movq	%rcx, %rdx
 2309 146d 48B8692D 		movabsq	$-7070675565921424023, %rax
 2309      38EB08EA 
 2309      DF9D
 2310 1477 480FAFC2 		imulq	%rdx, %rax
 2311 147b 4889C2   		movq	%rax, %rdx
 2312 147e 48C1E22F 		salq	$47, %rdx
 2313 1482 4831C2   		xorq	%rax, %rdx
 2314 1485 48B8692D 		movabsq	$-7070675565921424023, %rax
 2314      38EB08EA 
 2314      DF9D
 2315 148f 480FAFC2 		imulq	%rdx, %rax
 2316 1493 4889C2   		movq	%rax, %rdx
 2317 1496 83E27F   		andl	$127, %edx
 2318 1499 488D0CD5 		leaq	0(,%rdx,8), %rcx
 2318      00000000 
 2319 14a1 488D1500 		leaq	__ubsan_vptr_type_cache(%rip), %rdx
 2319      000000
 2320 14a8 488B1411 		movq	(%rcx,%rdx), %rdx
 2321 14ac 4839C2   		cmpq	%rax, %rdx
 2322 14af 7419     		je	.L114
 2323 14b1 488D8B10 		leaq	-1264(%rbx), %rcx
 2323      FBFFFF
 2324 14b8 4889C2   		movq	%rax, %rdx
 2325 14bb 4889CE   		movq	%rcx, %rsi
 2326 14be 488D3D00 		leaq	.Lubsan_data405(%rip), %rdi
 2326      000000
 2327 14c5 E8000000 		call	__ubsan_handle_dynamic_type_cache_miss@PLT
 2327      00
 2328              	.L114:
 2329 14ca 488D8310 		leaq	-1264(%rbx), %rax
 2329      FBFFFF
 2330 14d1 4889C7   		movq	%rax, %rdi
 2331 14d4 E8000000 		call	_ZNSt14basic_ofstreamIcSt11char_traitsIcEED1Ev@PLT
 2331      00
 2332 14d9 4183FE01 		cmpl	$1, %r14d
 2333 14dd 7408     		je	.L115
 2334 14df 41BE0000 		movl	$0, %r14d
 2334      0000
 2335 14e5 EB06     		jmp	.L116
 2336              	.L115:
 2337 14e7 41BE0100 		movl	$1, %r14d
 2337      0000
 2338              	.L116:
 2339 14ed 488D8350 		leaq	-688(%rbx), %rax
 2339      FDFFFF
 2340 14f4 4889C2   		movq	%rax, %rdx
 2341 14f7 48C1EA03 		shrq	$3, %rdx
 2342 14fb 4881C200 		addq	$2147450880, %rdx
 2342      80FF7F
 2343 1502 0FB612   		movzbl	(%rdx), %edx
 2344 1505 84D2     		testb	%dl, %dl
 2345 1507 7408     		je	.L117
 2346 1509 4889C7   		movq	%rax, %rdi
 2347 150c E8000000 		call	__asan_report_load8@PLT
 2347      00
 2348              	.L117:
 2349 1511 488B8350 		movq	-688(%rbx), %rax
 2349      FDFFFF
 2350 1518 4889C2   		movq	%rax, %rdx
 2351 151b 48B89127 		movabsq	$1323554330416523153, %rax
 2351      68A9A635 
 2351      5E12
 2352 1525 4831D0   		xorq	%rdx, %rax
 2353 1528 4889C1   		movq	%rax, %rcx
 2354 152b 48B8692D 		movabsq	$-7070675565921424023, %rax
 2354      38EB08EA 
 2354      DF9D
 2355 1535 480FAFC1 		imulq	%rcx, %rax
 2356 1539 4889C1   		movq	%rax, %rcx
 2357 153c 48C1E12F 		salq	$47, %rcx
 2358 1540 4831D0   		xorq	%rdx, %rax
 2359 1543 4831C1   		xorq	%rax, %rcx
 2360 1546 4889CA   		movq	%rcx, %rdx
 2361 1549 48B8692D 		movabsq	$-7070675565921424023, %rax
 2361      38EB08EA 
 2361      DF9D
 2362 1553 480FAFC2 		imulq	%rdx, %rax
 2363 1557 4889C2   		movq	%rax, %rdx
 2364 155a 48C1E22F 		salq	$47, %rdx
 2365 155e 4831C2   		xorq	%rax, %rdx
 2366 1561 48B8692D 		movabsq	$-7070675565921424023, %rax
 2366      38EB08EA 
 2366      DF9D
 2367 156b 480FAFC2 		imulq	%rdx, %rax
 2368 156f 4889C2   		movq	%rax, %rdx
 2369 1572 83E27F   		andl	$127, %edx
 2370 1575 488D0CD5 		leaq	0(,%rdx,8), %rcx
 2370      00000000 
 2371 157d 488D1500 		leaq	__ubsan_vptr_type_cache(%rip), %rdx
 2371      000000
 2372 1584 488B1411 		movq	(%rcx,%rdx), %rdx
 2373 1588 4839C2   		cmpq	%rax, %rdx
 2374 158b 7419     		je	.L118
 2375 158d 488D8B50 		leaq	-688(%rbx), %rcx
 2375      FDFFFF
 2376 1594 4889C2   		movq	%rax, %rdx
 2377 1597 4889CE   		movq	%rcx, %rsi
 2378 159a 488D3D00 		leaq	.Lubsan_data406(%rip), %rdi
 2378      000000
 2379 15a1 E8000000 		call	__ubsan_handle_dynamic_type_cache_miss@PLT
 2379      00
 2380              	.L118:
 2381 15a6 488D8350 		leaq	-688(%rbx), %rax
 2381      FDFFFF
 2382 15ad 4889C7   		movq	%rax, %rdi
 2383 15b0 E8000000 		call	_ZNSt14basic_ifstreamIcSt11char_traitsIcEED1Ev@PLT
 2383      00
 2384 15b5 4183FE01 		cmpl	$1, %r14d
 2385 15b9 7407     		je	.L119
 2386 15bb B8000000 		movl	$0, %eax
 2386      00
 2387 15c0 EB05     		jmp	.L120
 2388              	.L119:
 2389 15c2 B8010000 		movl	$1, %eax
 2389      00
 2390              	.L120:
 2391 15c7 83F801   		cmpl	$1, %eax
 2392 15ca 750A     		jne	.L121
  36:/home/arkel/c++/wordle/files/update_word_list.cpp **** }...
 2393              		.loc 3 36 1
 2394 15cc C7856CF8 		movl	$0, -1940(%rbp)
 2394      FFFF0000 
 2394      0000
 2395              	.L121:
 2396 15d6 8B9D6CF8 		movl	-1940(%rbp), %ebx
 2396      FFFF
  16:/home/arkel/c++/wordle/files/update_word_list.cpp **** int main() {
 2397              		.loc 3 16 12
 2398 15dc 4D39EF   		cmpq	%r13, %r15
 2399 15df 0F847B03 		je	.L70
 2399      0000
 2400 15e5 E9590300 		jmp	.L147
 2400      00
 2401              	.L141:
 2402 15ea F30F1EFA 		endbr64
 2403 15ee 4989C4   		movq	%rax, %r12
  26:/home/arkel/c++/wordle/files/update_word_list.cpp ****       removed_dates.push_back(date_thing(line)[0]);
 2404              		.loc 3 26 41
 2405 15f1 488D8350 		leaq	-1712(%rbx), %rax
 2405      F9FFFF
 2406 15f8 4889C7   		movq	%rax, %rdi
 2407 15fb E8000000 		call	_ZNSt6vectorINSt7__cxx1112basic_stringIcSt11char_traitsIcESaIcEEESaIS5_EED1Ev
 2407      00
 2408 1600 4C89E2   		movq	%r12, %rdx
 2409 1603 488D8350 		leaq	-1712(%rbx), %rax
 2409      F9FFFF
 2410 160a 48C1E803 		shrq	$3, %rax
 2411 160e 48050080 		addq	$2147450880, %rax
 2411      FF7F
 2412 1614 66C700F8 		movw	$-1800, (%rax)
 2412      F8
 2413 1619 C64002F8 		movb	$-8, 2(%rax)
 2414 161d 4989D4   		movq	%rdx, %r12
 2415 1620 EB07     		jmp	.L123
 2416              	.L140:
 2417 1622 F30F1EFA 		endbr64
 2418 1626 4989C4   		movq	%rax, %r12
 2419              	.L123:
  26:/home/arkel/c++/wordle/files/update_word_list.cpp ****       removed_dates.push_back(date_thing(line)[0]);
 2420              		.loc 3 26 41 is_stmt 0 discriminator 2
 2421 1629 488D8350 		leaq	-1456(%rbx), %rax
 2421      FAFFFF
 2422 1630 4889C7   		movq	%rax, %rdi
 2423 1633 E8000000 		call	_ZNSt7__cxx1112basic_stringIcSt11char_traitsIcESaIcEED1Ev@PLT
 2423      00
 2424 1638 4C89E2   		movq	%r12, %rdx
 2425 163b 488D8350 		leaq	-1456(%rbx), %rax
 2425      FAFFFF
 2426 1642 48C1E803 		shrq	$3, %rax
 2427 1646 48050080 		addq	$2147450880, %rax
 2427      FF7F
 2428 164c C700F8F8 		movl	$-117901064, (%rax)
 2428      F8F8
 2429 1652 4989D4   		movq	%rdx, %r12
 2430 1655 E9190100 		jmp	.L124
 2430      00
 2431              	.L143:
 2432 165a F30F1EFA 		endbr64
 2433 165e 4989C4   		movq	%rax, %r12
  28:/home/arkel/c++/wordle/files/update_word_list.cpp ****       removed_dates.push_back(date_thing(line)[0]);
 2434              		.loc 3 28 41 is_stmt 1
 2435 1661 488D8390 		leaq	-1648(%rbx), %rax
 2435      F9FFFF
 2436 1668 4889C7   		movq	%rax, %rdi
 2437 166b E8000000 		call	_ZNSt6vectorINSt7__cxx1112basic_stringIcSt11char_traitsIcESaIcEEESaIS5_EED1Ev
 2437      00
 2438 1670 4C89E2   		movq	%r12, %rdx
 2439 1673 488D8390 		leaq	-1648(%rbx), %rax
 2439      F9FFFF
 2440 167a 48C1E803 		shrq	$3, %rax
 2441 167e 48050080 		addq	$2147450880, %rax
 2441      FF7F
 2442 1684 66C700F8 		movw	$-1800, (%rax)
 2442      F8
 2443 1689 C64002F8 		movb	$-8, 2(%rax)
 2444 168d 4989D4   		movq	%rdx, %r12
 2445 1690 EB07     		jmp	.L126
 2446              	.L142:
 2447 1692 F30F1EFA 		endbr64
 2448 1696 4989C4   		movq	%rax, %r12
 2449              	.L126:
  28:/home/arkel/c++/wordle/files/update_word_list.cpp ****       removed_dates.push_back(date_thing(line)[0]);
 2450              		.loc 3 28 41 is_stmt 0 discriminator 2
 2451 1699 488D8390 		leaq	-1392(%rbx), %rax
 2451      FAFFFF
 2452 16a0 4889C7   		movq	%rax, %rdi
 2453 16a3 E8000000 		call	_ZNSt7__cxx1112basic_stringIcSt11char_traitsIcESaIcEED1Ev@PLT
 2453      00
 2454 16a8 4C89E2   		movq	%r12, %rdx
 2455 16ab 488D8390 		leaq	-1392(%rbx), %rax
 2455      FAFFFF
 2456 16b2 48C1E803 		shrq	$3, %rax
 2457 16b6 48050080 		addq	$2147450880, %rax
 2457      FF7F
 2458 16bc C700F8F8 		movl	$-117901064, (%rax)
 2458      F8F8
 2459 16c2 4989D4   		movq	%rdx, %r12
 2460 16c5 E9A90000 		jmp	.L124
 2460      00
 2461              	.L145:
 2462 16ca F30F1EFA 		endbr64
 2463 16ce 4989C4   		movq	%rax, %r12
  29:/home/arkel/c++/wordle/files/update_word_list.cpp ****       ofs << removed_dates[0] << ' ' << date_thing(line)[1] << '\n';
 2464              		.loc 3 29 51 is_stmt 1
 2465 16d1 488D83D0 		leaq	-1584(%rbx), %rax
 2465      F9FFFF
 2466 16d8 4889C7   		movq	%rax, %rdi
 2467 16db E8000000 		call	_ZNSt6vectorINSt7__cxx1112basic_stringIcSt11char_traitsIcESaIcEEESaIS5_EED1Ev
 2467      00
 2468 16e0 4C89E2   		movq	%r12, %rdx
 2469 16e3 488D83D0 		leaq	-1584(%rbx), %rax
 2469      F9FFFF
 2470 16ea 48C1E803 		shrq	$3, %rax
 2471 16ee 48050080 		addq	$2147450880, %rax
 2471      FF7F
 2472 16f4 66C700F8 		movw	$-1800, (%rax)
 2472      F8
 2473 16f9 C64002F8 		movb	$-8, 2(%rax)
 2474 16fd 4989D4   		movq	%rdx, %r12
 2475 1700 EB07     		jmp	.L128
 2476              	.L144:
 2477 1702 F30F1EFA 		endbr64
 2478 1706 4989C4   		movq	%rax, %r12
 2479              	.L128:
  29:/home/arkel/c++/wordle/files/update_word_list.cpp ****       ofs << removed_dates[0] << ' ' << date_thing(line)[1] << '\n';
 2480              		.loc 3 29 51 is_stmt 0 discriminator 4
 2481 1709 488D83D0 		leaq	-1328(%rbx), %rax
 2481      FAFFFF
 2482 1710 4889C7   		movq	%rax, %rdi
 2483 1713 E8000000 		call	_ZNSt7__cxx1112basic_stringIcSt11char_traitsIcESaIcEED1Ev@PLT
 2483      00
 2484 1718 4C89E2   		movq	%r12, %rdx
 2485 171b 488D83D0 		leaq	-1328(%rbx), %rax
 2485      FAFFFF
 2486 1722 48C1E803 		shrq	$3, %rax
 2487 1726 48050080 		addq	$2147450880, %rax
 2487      FF7F
 2488 172c C700F8F8 		movl	$-117901064, (%rax)
 2488      F8F8
 2489 1732 4989D4   		movq	%rdx, %r12
 2490 1735 EB3C     		jmp	.L124
 2491              	.L146:
 2492 1737 F30F1EFA 		endbr64
  30:/home/arkel/c++/wordle/files/update_word_list.cpp ****       removed_dates.erase(removed_dates.begin()); // pop front
 2493              		.loc 3 30 48 is_stmt 1
 2494 173b 488D93F0 		leaq	-1808(%rbx), %rdx
 2494      F8FFFF
 2495 1742 48C1EA03 		shrq	$3, %rdx
 2496 1746 4881C200 		addq	$2147450880, %rdx
 2496      80FF7F
 2497 174d C602F8   		movb	$-8, (%rdx)
 2498 1750 4889C2   		movq	%rax, %rdx
  30:/home/arkel/c++/wordle/files/update_word_list.cpp ****       removed_dates.erase(removed_dates.begin()); // pop front
 2499              		.loc 3 30 46
 2500 1753 488D83D0 		leaq	-1840(%rbx), %rax
 2500      F8FFFF
 2501 175a 48C1E803 		shrq	$3, %rax
 2502 175e 48050080 		addq	$2147450880, %rax
 2502      FF7F
 2503 1764 C600F8   		movb	$-8, (%rax)
 2504 1767 4989D4   		movq	%rdx, %r12
 2505 176a EB07     		jmp	.L124
 2506              	.L139:
 2507 176c F30F1EFA 		endbr64
 2508 1770 4989C4   		movq	%rax, %r12
 2509              	.L124:
  21:/home/arkel/c++/wordle/files/update_word_list.cpp ****   std::string line;
 2510              		.loc 3 21 15
 2511 1773 488D8310 		leaq	-1520(%rbx), %rax
 2511      FAFFFF
 2512 177a 4889C7   		movq	%rax, %rdi
 2513 177d E8000000 		call	_ZNSt7__cxx1112basic_stringIcSt11char_traitsIcESaIcEED1Ev@PLT
 2513      00
  20:/home/arkel/c++/wordle/files/update_word_list.cpp ****   std::vector<std::string> removed_dates;
 2514              		.loc 3 20 28
 2515 1782 488D8310 		leaq	-1776(%rbx), %rax
 2515      F9FFFF
 2516 1789 4889C7   		movq	%rax, %rdi
 2517 178c E8000000 		call	_ZNSt6vectorINSt7__cxx1112basic_stringIcSt11char_traitsIcESaIcEEESaIS5_EED1Ev
 2517      00
 2518 1791 EB07     		jmp	.L130
 2519              	.L138:
 2520 1793 F30F1EFA 		endbr64
 2521 1797 4989C4   		movq	%rax, %r12
 2522              	.L130:
  18:/home/arkel/c++/wordle/files/update_word_list.cpp ****   std::ofstream ofs("processed.txt");
 2523              		.loc 3 18 36
 2524 179a 488D8310 		leaq	-1264(%rbx), %rax
 2524      FBFFFF
 2525 17a1 4889C2   		movq	%rax, %rdx
 2526 17a4 48C1EA03 		shrq	$3, %rdx
 2527 17a8 4881C200 		addq	$2147450880, %rdx
 2527      80FF7F
 2528 17af 0FB612   		movzbl	(%rdx), %edx
 2529 17b2 84D2     		testb	%dl, %dl
 2530 17b4 7408     		je	.L131
 2531 17b6 4889C7   		movq	%rax, %rdi
 2532 17b9 E8000000 		call	__asan_report_load8@PLT
 2532      00
 2533              	.L131:
 2534 17be 488B8310 		movq	-1264(%rbx), %rax
 2534      FBFFFF
 2535 17c5 4889C2   		movq	%rax, %rdx
 2536 17c8 48B8F313 		movabsq	$-7890976370364771341, %rax
 2536      68A1CC9E 
 2536      7D92
 2537 17d2 4831D0   		xorq	%rdx, %rax
 2538 17d5 4889C1   		movq	%rax, %rcx
 2539 17d8 48B8692D 		movabsq	$-7070675565921424023, %rax
 2539      38EB08EA 
 2539      DF9D
 2540 17e2 480FAFC1 		imulq	%rcx, %rax
 2541 17e6 4889C1   		movq	%rax, %rcx
 2542 17e9 48C1E12F 		salq	$47, %rcx
 2543 17ed 4831D0   		xorq	%rdx, %rax
 2544 17f0 4831C1   		xorq	%rax, %rcx
 2545 17f3 4889CA   		movq	%rcx, %rdx
 2546 17f6 48B8692D 		movabsq	$-7070675565921424023, %rax
 2546      38EB08EA 
 2546      DF9D
 2547 1800 480FAFC2 		imulq	%rdx, %rax
 2548 1804 4889C2   		movq	%rax, %rdx
 2549 1807 48C1E22F 		salq	$47, %rdx
 2550 180b 4831C2   		xorq	%rax, %rdx
 2551 180e 48B8692D 		movabsq	$-7070675565921424023, %rax
 2551      38EB08EA 
 2551      DF9D
 2552 1818 480FAFC2 		imulq	%rdx, %rax
 2553 181c 4889C2   		movq	%rax, %rdx
 2554 181f 83E27F   		andl	$127, %edx
 2555 1822 488D0CD5 		leaq	0(,%rdx,8), %rcx
 2555      00000000 
 2556 182a 488D1500 		leaq	__ubsan_vptr_type_cache(%rip), %rdx
 2556      000000
 2557 1831 488B1411 		movq	(%rcx,%rdx), %rdx
 2558 1835 4839C2   		cmpq	%rax, %rdx
 2559 1838 7419     		je	.L132
 2560 183a 488D8B10 		leaq	-1264(%rbx), %rcx
 2560      FBFFFF
 2561 1841 4889C2   		movq	%rax, %rdx
 2562 1844 4889CE   		movq	%rcx, %rsi
 2563 1847 488D3D00 		leaq	.Lubsan_data407(%rip), %rdi
 2563      000000
 2564 184e E8000000 		call	__ubsan_handle_dynamic_type_cache_miss@PLT
 2564      00
 2565              	.L132:
 2566 1853 488D8310 		leaq	-1264(%rbx), %rax
 2566      FBFFFF
 2567 185a 4889C7   		movq	%rax, %rdi
 2568 185d E8000000 		call	_ZNSt14basic_ofstreamIcSt11char_traitsIcEED1Ev@PLT
 2568      00
 2569 1862 EB07     		jmp	.L133
 2570              	.L137:
 2571 1864 F30F1EFA 		endbr64
 2572 1868 4989C4   		movq	%rax, %r12
 2573              	.L133:
  17:/home/arkel/c++/wordle/files/update_word_list.cpp ****   std::ifstream ifs("wordles.txt");
 2574              		.loc 3 17 34
 2575 186b 488D8350 		leaq	-688(%rbx), %rax
 2575      FDFFFF
 2576 1872 4889C2   		movq	%rax, %rdx
 2577 1875 48C1EA03 		shrq	$3, %rdx
 2578 1879 4881C200 		addq	$2147450880, %rdx
 2578      80FF7F
 2579 1880 0FB612   		movzbl	(%rdx), %edx
 2580 1883 84D2     		testb	%dl, %dl
 2581 1885 7408     		je	.L134
 2582 1887 4889C7   		movq	%rax, %rdi
 2583 188a E8000000 		call	__asan_report_load8@PLT
 2583      00
 2584              	.L134:
 2585 188f 488B8350 		movq	-688(%rbx), %rax
 2585      FDFFFF
 2586 1896 4889C2   		movq	%rax, %rdx
 2587 1899 48B89127 		movabsq	$1323554330416523153, %rax
 2587      68A9A635 
 2587      5E12
 2588 18a3 4831D0   		xorq	%rdx, %rax
 2589 18a6 4889C1   		movq	%rax, %rcx
 2590 18a9 48B8692D 		movabsq	$-7070675565921424023, %rax
 2590      38EB08EA 
 2590      DF9D
 2591 18b3 480FAFC1 		imulq	%rcx, %rax
 2592 18b7 4889C1   		movq	%rax, %rcx
 2593 18ba 48C1E12F 		salq	$47, %rcx
 2594 18be 4831D0   		xorq	%rdx, %rax
 2595 18c1 4831C1   		xorq	%rax, %rcx
 2596 18c4 4889CA   		movq	%rcx, %rdx
 2597 18c7 48B8692D 		movabsq	$-7070675565921424023, %rax
 2597      38EB08EA 
 2597      DF9D
 2598 18d1 480FAFC2 		imulq	%rdx, %rax
 2599 18d5 4889C2   		movq	%rax, %rdx
 2600 18d8 48C1E22F 		salq	$47, %rdx
 2601 18dc 4831C2   		xorq	%rax, %rdx
 2602 18df 48B8692D 		movabsq	$-7070675565921424023, %rax
 2602      38EB08EA 
 2602      DF9D
 2603 18e9 480FAFC2 		imulq	%rdx, %rax
 2604 18ed 4889C2   		movq	%rax, %rdx
 2605 18f0 83E27F   		andl	$127, %edx
 2606 18f3 488D0CD5 		leaq	0(,%rdx,8), %rcx
 2606      00000000 
 2607 18fb 488D1500 		leaq	__ubsan_vptr_type_cache(%rip), %rdx
 2607      000000
 2608 1902 488B1411 		movq	(%rcx,%rdx), %rdx
 2609 1906 4839C2   		cmpq	%rax, %rdx
 2610 1909 7419     		je	.L135
 2611 190b 488D8B50 		leaq	-688(%rbx), %rcx
 2611      FDFFFF
 2612 1912 4889C2   		movq	%rax, %rdx
 2613 1915 4889CE   		movq	%rcx, %rsi
 2614 1918 488D3D00 		leaq	.Lubsan_data408(%rip), %rdi
 2614      000000
 2615 191f E8000000 		call	__ubsan_handle_dynamic_type_cache_miss@PLT
 2615      00
 2616              	.L135:
 2617 1924 488D8350 		leaq	-688(%rbx), %rax
 2617      FDFFFF
 2618 192b 4889C7   		movq	%rax, %rdi
 2619 192e E8000000 		call	_ZNSt14basic_ifstreamIcSt11char_traitsIcEED1Ev@PLT
 2619      00
 2620 1933 4C89E3   		movq	%r12, %rbx
 2621 1936 E8000000 		call	__asan_handle_no_return@PLT
 2621      00
 2622 193b 4889DF   		movq	%rbx, %rdi
 2623              	.LEHB20:
 2624 193e E8000000 		call	_Unwind_Resume@PLT
 2624      00
 2625              	.LEHE20:
 2626              	.L147:
  16:/home/arkel/c++/wordle/files/update_word_list.cpp **** int main() {
 2627              		.loc 3 16 12
 2628 1943 49C74500 		movq	$1172321806, 0(%r13)
 2628      0E36E045 
 2629 194b 4C89FA   		movq	%r15, %rdx
 2630 194e BE400700 		movl	$1856, %esi
 2630      00
 2631 1953 4C89EF   		movq	%r13, %rdi
 2632 1956 E8000000 		call	__asan_stack_free_5@PLT
 2632      00
 2633              	.LVL2:
 2634 195b E9B40000 		jmp	.L71
 2634      00
 2635              	.L70:
 2636 1960 49C78424 		movq	$0, 2147450880(%r12)
 2636      0080FF7F 
 2636      00000000 
 2637 196c 49C78424 		movq	$0, 2147450888(%r12)
 2637      0880FF7F 
 2637      00000000 
 2638 1978 49C78424 		movq	$0, 2147450896(%r12)
 2638      1080FF7F 
 2638      00000000 
 2639 1984 49C78424 		movq	$0, 2147450904(%r12)
 2639      1880FF7F 
 2639      00000000 
 2640 1990 49C78424 		movq	$0, 2147450912(%r12)
 2640      2080FF7F 
 2640      00000000 
 2641 199c 49C78424 		movq	$0, 2147450920(%r12)
 2641      2880FF7F 
 2641      00000000 
 2642 19a8 49C78424 		movq	$0, 2147450928(%r12)
 2642      3080FF7F 
 2642      00000000 
 2643 19b4 49C78424 		movq	$0, 2147450936(%r12)
 2643      3880FF7F 
 2643      00000000 
 2644 19c0 49C78424 		movq	$0, 2147450944(%r12)
 2644      4080FF7F 
 2644      00000000 
 2645 19cc 49C78424 		movq	$0, 2147450952(%r12)
 2645      4880FF7F 
 2645      00000000 
 2646 19d8 49C78424 		movq	$0, 2147451020(%r12)
 2646      8C80FF7F 
 2646      00000000 
 2647 19e4 41C78424 		movl	$0, 2147451028(%r12)
 2647      9480FF7F 
 2647      00000000 
 2648 19f0 49C78424 		movq	$0, 2147451092(%r12)
 2648      D480FF7F 
 2648      00000000 
 2649 19fc 49C78424 		movq	$0, 2147451100(%r12)
 2649      DC80FF7F 
 2649      00000000 
 2650 1a08 41C78424 		movl	$0, 2147451108(%r12)
 2650      E480FF7F 
 2650      00000000 
 2651              	.L71:
 2652              		.loc 3 36 1
 2653 1a14 488B45C8 		movq	-56(%rbp), %rax
 2654 1a18 64483304 		xorq	%fs:40, %rax
 2654      25280000 
 2654      00
 2655 1a21 7405     		je	.L136
 2656 1a23 E8000000 		call	__stack_chk_fail@PLT
 2656      00
 2657              	.L136:
 2658 1a28 89D8     		movl	%ebx, %eax
 2659 1a2a 4881C478 		addq	$1912, %rsp
 2659      070000
 2660 1a31 5B       		popq	%rbx
 2661 1a32 415C     		popq	%r12
 2662 1a34 415D     		popq	%r13
 2663 1a36 415E     		popq	%r14
 2664 1a38 415F     		popq	%r15
 2665 1a3a 5D       		popq	%rbp
 2666              		.cfi_def_cfa 7, 8
 2667 1a3b C3       		ret
 2668              		.cfi_endproc
 2669              	.LFE2344:
 2670              		.section	.gcc_except_table
 2671              	.LLSDA2344:
 2672 0028 FF       		.byte	0xff
 2673 0029 FF       		.byte	0xff
 2674 002a 01       		.byte	0x1
 2675 002b 5B       		.uleb128 .LLSDACSE2344-.LLSDACSB2344
 2676              	.LLSDACSB2344:
 2677 002c F903     		.uleb128 .LEHB6-.LFB2344
 2678 002e 05       		.uleb128 .LEHE6-.LEHB6
 2679 002f 00       		.uleb128 0
 2680 0030 00       		.uleb128 0
 2681 0031 9404     		.uleb128 .LEHB7-.LFB2344
 2682 0033 05       		.uleb128 .LEHE7-.LEHB7
 2683 0034 BE21     		.uleb128 .L137-.LFB2344
 2684 0036 00       		.uleb128 0
 2685 0037 DC05     		.uleb128 .LEHB8-.LFB2344
 2686 0039 D801     		.uleb128 .LEHE8-.LEHB8
 2687 003b ED1F     		.uleb128 .L138-.LFB2344
 2688 003d 00       		.uleb128 0
 2689 003e 9208     		.uleb128 .LEHB9-.LFB2344
 2690 0040 8303     		.uleb128 .LEHE9-.LEHB9
 2691 0042 C61F     		.uleb128 .L139-.LFB2344
 2692 0044 00       		.uleb128 0
 2693 0045 900C     		.uleb128 .LEHB10-.LFB2344
 2694 0047 05       		.uleb128 .LEHE10-.LEHB10
 2695 0048 FC1C     		.uleb128 .L140-.LFB2344
 2696 004a 00       		.uleb128 0
 2697 004b FD0C     		.uleb128 .LEHB11-.LFB2344
 2698 004d 05       		.uleb128 .LEHE11-.LEHB11
 2699 004e C41C     		.uleb128 .L141-.LFB2344
 2700 0050 00       		.uleb128 0
 2701 0051 9B0E     		.uleb128 .LEHB12-.LFB2344
 2702 0053 05       		.uleb128 .LEHE12-.LEHB12
 2703 0054 C61F     		.uleb128 .L139-.LFB2344
 2704 0056 00       		.uleb128 0
 2705 0057 9B0F     		.uleb128 .LEHB13-.LFB2344
 2706 0059 05       		.uleb128 .LEHE13-.LEHB13
 2707 005a EC1D     		.uleb128 .L142-.LFB2344
 2708 005c 00       		.uleb128 0
 2709 005d 8810     		.uleb128 .LEHB14-.LFB2344
 2710 005f 05       		.uleb128 .LEHE14-.LEHB14
 2711 0060 B41D     		.uleb128 .L143-.LFB2344
 2712 0062 00       		.uleb128 0
 2713 0063 A211     		.uleb128 .LEHB15-.LFB2344
 2714 0065 63       		.uleb128 .LEHE15-.LEHB15
 2715 0066 C61F     		.uleb128 .L139-.LFB2344
 2716 0068 00       		.uleb128 0
 2717 0069 8013     		.uleb128 .LEHB16-.LFB2344
 2718 006b 05       		.uleb128 .LEHE16-.LEHB16
 2719 006c DC1E     		.uleb128 .L144-.LFB2344
 2720 006e 00       		.uleb128 0
 2721 006f EA13     		.uleb128 .LEHB17-.LFB2344
 2722 0071 12       		.uleb128 .LEHE17-.LEHB17
 2723 0072 A41E     		.uleb128 .L145-.LFB2344
 2724 0074 00       		.uleb128 0
 2725 0075 A016     		.uleb128 .LEHB18-.LFB2344
 2726 0077 05       		.uleb128 .LEHE18-.LEHB18
 2727 0078 911F     		.uleb128 .L146-.LFB2344
 2728 007a 00       		.uleb128 0
 2729 007b E116     		.uleb128 .LEHB19-.LFB2344
 2730 007d E601     		.uleb128 .LEHE19-.LEHB19
 2731 007f C61F     		.uleb128 .L139-.LFB2344
 2732 0081 00       		.uleb128 0
 2733 0082 9823     		.uleb128 .LEHB20-.LFB2344
 2734 0084 05       		.uleb128 .LEHE20-.LEHB20
 2735 0085 00       		.uleb128 0
 2736 0086 00       		.uleb128 0
 2737              	.LLSDACSE2344:
 2738              		.text
 2740              		.data
 2741              		.align 32
 2744              	.Lubsan_type17:
 2747 0364 27636F6E 		.string	"'const char_type'"
 2747      73742063 
 2747      6861725F 
 2747      74797065 
 2747      2700
 2748 0376 00000000 		.zero	42
 2748      00000000 
 2748      00000000 
 2748      00000000 
 2748      00000000 
 2749              		.section	.rodata
 2750              		.align 32
 2751              	.LC7:
 2752 02e0 2F757372 		.string	"/usr/include/c++/9/bits/char_traits.h"
 2752      2F696E63 
 2752      6C756465 
 2752      2F632B2B 
 2752      2F392F62 
 2753 0306 00000000 		.zero	58
 2753      00000000 
 2753      00000000 
 2753      00000000 
 2753      00000000 
 2754              		.section	.data.rel.local
 2755              		.align 32
 2758              	.Lubsan_data409:
 2759 06c0 00000000 		.quad	.LC7
 2759      00000000 
 2760 06c8 65000000 		.long	101
 2761 06cc 15000000 		.long	21
 2762 06d0 00000000 		.quad	.Lubsan_type17
 2762      00000000 
 2763 06d8 00       		.byte	0
 2764 06d9 00       		.byte	0
 2765 06da 00000000 		.zero	6
 2765      0000
 2766 06e0 00000000 		.zero	32
 2766      00000000 
 2766      00000000 
 2766      00000000 
 2766      00000000 
 2767              		.align 32
 2770              	.Lubsan_data410:
 2771 0700 00000000 		.quad	.LC7
 2771      00000000 
 2772 0708 65000000 		.long	101
 2773 070c 15000000 		.long	21
 2774 0710 00000000 		.quad	.Lubsan_type17
 2774      00000000 
 2775 0718 00       		.byte	0
 2776 0719 00       		.byte	0
 2777 071a 00000000 		.zero	6
 2777      0000
 2778 0720 00000000 		.zero	32
 2778      00000000 
 2778      00000000 
 2778      00000000 
 2778      00000000 
 2779              		.section	.text._ZN9__gnu_cxx11char_traitsIcE2eqERKcS3_,"axG",@progbits,_ZN9__gnu_cxx11char_traitsI
 2780              		.weak	_ZN9__gnu_cxx11char_traitsIcE2eqERKcS3_
 2782              	_ZN9__gnu_cxx11char_traitsIcE2eqERKcS3_:
 2783              	.LASANPC2355:
 2784              	.LFB2355:
 100:/usr/include/c++/9/bits/char_traits.h ****       { return __c1 == __c2; }
 2785              		.loc 2 100 7
 2786              		.cfi_startproc
 2787 0000 F30F1EFA 		endbr64
 2788 0004 55       		pushq	%rbp
 2789              		.cfi_def_cfa_offset 16
 2790              		.cfi_offset 6, -16
 2791 0005 4889E5   		movq	%rsp, %rbp
 2792              		.cfi_def_cfa_register 6
 2793 0008 53       		pushq	%rbx
 2794 0009 4883EC18 		subq	$24, %rsp
 2795              		.cfi_offset 3, -24
 2796 000d 48897DE8 		movq	%rdi, -24(%rbp)
 2797 0011 488975E0 		movq	%rsi, -32(%rbp)
 101:/usr/include/c++/9/bits/char_traits.h **** 
 2798              		.loc 2 101 21
 2799 0015 48837DE8 		cmpq	$0, -24(%rbp)
 2799      00
 2800 001a 7511     		jne	.L149
 2801 001c BE000000 		movl	$0, %esi
 2801      00
 2802 0021 488D3D00 		leaq	.Lubsan_data409(%rip), %rdi
 2802      000000
 2803 0028 E8000000 		call	__ubsan_handle_type_mismatch_v1@PLT
 2803      00
 2804              	.L149:
 2805 002d 488B45E8 		movq	-24(%rbp), %rax
 2806 0031 4889C2   		movq	%rax, %rdx
 2807 0034 48C1EA03 		shrq	$3, %rdx
 2808 0038 4881C200 		addq	$2147450880, %rdx
 2808      80FF7F
 2809 003f 0FB612   		movzbl	(%rdx), %edx
 2810 0042 84D2     		testb	%dl, %dl
 2811 0044 0F95C1   		setne	%cl
 2812 0047 4889C6   		movq	%rax, %rsi
 2813 004a 83E607   		andl	$7, %esi
 2814 004d 4038D6   		cmpb	%dl, %sil
 2815 0050 0F9DC2   		setge	%dl
 2816 0053 21CA     		andl	%ecx, %edx
 2817 0055 84D2     		testb	%dl, %dl
 2818 0057 7408     		je	.L150
 2819 0059 4889C7   		movq	%rax, %rdi
 2820 005c E8000000 		call	__asan_report_load1@PLT
 2820      00
 2821              	.L150:
 2822 0061 488B45E8 		movq	-24(%rbp), %rax
 2823 0065 0FB618   		movzbl	(%rax), %ebx
 2824 0068 48837DE0 		cmpq	$0, -32(%rbp)
 2824      00
 2825 006d 7511     		jne	.L151
 2826 006f BE000000 		movl	$0, %esi
 2826      00
 2827 0074 488D3D00 		leaq	.Lubsan_data410(%rip), %rdi
 2827      000000
 2828 007b E8000000 		call	__ubsan_handle_type_mismatch_v1@PLT
 2828      00
 2829              	.L151:
 2830 0080 488B45E0 		movq	-32(%rbp), %rax
 2831 0084 4889C2   		movq	%rax, %rdx
 2832 0087 48C1EA03 		shrq	$3, %rdx
 2833 008b 4881C200 		addq	$2147450880, %rdx
 2833      80FF7F
 2834 0092 0FB612   		movzbl	(%rdx), %edx
 2835 0095 84D2     		testb	%dl, %dl
 2836 0097 0F95C1   		setne	%cl
 2837 009a 4889C6   		movq	%rax, %rsi
 2838 009d 83E607   		andl	$7, %esi
 2839 00a0 4038D6   		cmpb	%dl, %sil
 2840 00a3 0F9DC2   		setge	%dl
 2841 00a6 21CA     		andl	%ecx, %edx
 2842 00a8 84D2     		testb	%dl, %dl
 2843 00aa 7408     		je	.L152
 2844 00ac 4889C7   		movq	%rax, %rdi
 2845 00af E8000000 		call	__asan_report_load1@PLT
 2845      00
 2846              	.L152:
 2847 00b4 488B45E0 		movq	-32(%rbp), %rax
 2848 00b8 0FB600   		movzbl	(%rax), %eax
 101:/usr/include/c++/9/bits/char_traits.h **** 
 2849              		.loc 2 101 24
 2850 00bb 38C3     		cmpb	%al, %bl
 2851 00bd 0F94C0   		sete	%al
 101:/usr/include/c++/9/bits/char_traits.h **** 
 2852              		.loc 2 101 30
 2853 00c0 4883C418 		addq	$24, %rsp
 2854 00c4 5B       		popq	%rbx
 2855 00c5 5D       		popq	%rbp
 2856              		.cfi_def_cfa 7, 8
 2857 00c6 C3       		ret
 2858              		.cfi_endproc
 2859              	.LFE2355:
 2861              		.section	.data.rel.local
 2862              		.align 32
 2865              	.Lubsan_data411:
 2866 0740 00000000 		.quad	.LC7
 2866      00000000 
 2867 0748 A5000000 		.long	165
 2868 074c 15000000 		.long	21
 2869 0750 00000000 		.zero	48
 2869      00000000 
 2869      00000000 
 2869      00000000 
 2869      00000000 
 2870              		.align 32
 2873              	.Lubsan_data412:
 2874 0780 00000000 		.quad	.LC7
 2874      00000000 
 2875 0788 A5000000 		.long	165
 2876 078c 15000000 		.long	21
 2877 0790 00000000 		.quad	.Lubsan_type17
 2877      00000000 
 2878 0798 00       		.byte	0
 2879 0799 02       		.byte	2
 2880 079a 00000000 		.zero	6
 2880      0000
 2881 07a0 00000000 		.zero	32
 2881      00000000 
 2881      00000000 
 2881      00000000 
 2881      00000000 
 2882              		.globl	__asan_stack_malloc_0
 2883              		.section	.rodata
 2884              	.LC8:
 2885 0340 31203332 		.string	"1 32 1 9 <unknown>"
 2885      20312039 
 2885      203C756E 
 2885      6B6E6F77 
 2885      6E3E00
 2886              		.section	.text._ZN9__gnu_cxx11char_traitsIcE6lengthEPKc,"axG",@progbits,_ZN9__gnu_cxx11char_traits
 2887              		.align 2
 2888              		.weak	_ZN9__gnu_cxx11char_traitsIcE6lengthEPKc
 2890              	_ZN9__gnu_cxx11char_traitsIcE6lengthEPKc:
 2891              	.LASANPC2354:
 2892              	.LFB2354:
 161:/usr/include/c++/9/bits/char_traits.h ****     length(const char_type* __p)
 2893              		.loc 2 161 5
 2894              		.cfi_startproc
 2895 0000 F30F1EFA 		endbr64
 2896 0004 55       		pushq	%rbp
 2897              		.cfi_def_cfa_offset 16
 2898              		.cfi_offset 6, -16
 2899 0005 4889E5   		movq	%rsp, %rbp
 2900              		.cfi_def_cfa_register 6
 2901 0008 4157     		pushq	%r15
 2902 000a 4156     		pushq	%r14
 2903 000c 4155     		pushq	%r13
 2904 000e 4154     		pushq	%r12
 2905 0010 53       		pushq	%rbx
 2906 0011 4881EC88 		subq	$136, %rsp
 2906      000000
 2907              		.cfi_offset 15, -24
 2908              		.cfi_offset 14, -32
 2909              		.cfi_offset 13, -40
 2910              		.cfi_offset 12, -48
 2911              		.cfi_offset 3, -56
 2912 0018 4889BD58 		movq	%rdi, -168(%rbp)
 2912      FFFFFF
 2913 001f 488D9D70 		leaq	-144(%rbp), %rbx
 2913      FFFFFF
 2914 0026 4989DF   		movq	%rbx, %r15
 2915 0029 833D0000 		cmpl	$0, __asan_option_detect_stack_use_after_return(%rip)
 2915      000000
 2916 0030 7412     		je	.L154
 2917 0032 BF400000 		movl	$64, %edi
 2917      00
 2918 0037 E8000000 		call	__asan_stack_malloc_0@PLT
 2918      00
 2919              	.LVL3:
 2920 003c 4885C0   		testq	%rax, %rax
 2921 003f 7403     		je	.L154
 2922 0041 4889C3   		movq	%rax, %rbx
 2923              	.L154:
 2924 0044 488D4360 		leaq	96(%rbx), %rax
 2925 0048 4989C4   		movq	%rax, %r12
 2926 004b 48C703B3 		movq	$1102416563, (%rbx)
 2926      8AB541
 2927 0052 488D0500 		leaq	.LC8(%rip), %rax
 2927      000000
 2928 0059 48894308 		movq	%rax, 8(%rbx)
 2929 005d 488D059C 		leaq	.LASANPC2354(%rip), %rax
 2929      FFFFFF
 2930 0064 48894310 		movq	%rax, 16(%rbx)
 2931 0068 4989DD   		movq	%rbx, %r13
 2932 006b 49C1ED03 		shrq	$3, %r13
 2933 006f 41C78500 		movl	$-235802127, 2147450880(%r13)
 2933      80FF7FF1 
 2933      F1F1F1
 2934 007a 41C78504 		movl	$-202116351, 2147450884(%r13)
 2934      80FF7F01 
 2934      F3F3F3
 161:/usr/include/c++/9/bits/char_traits.h ****     length(const char_type* __p)
 2935              		.loc 2 161 5
 2936 0085 64488B04 		movq	%fs:40, %rax
 2936      25280000 
 2936      00
 2937 008e 488945C8 		movq	%rax, -56(%rbp)
 2938 0092 31C0     		xorl	%eax, %eax
 164:/usr/include/c++/9/bits/char_traits.h ****       while (!eq(__p[__i], char_type()))
 2939              		.loc 2 164 19
 2940 0094 48C78568 		movq	$0, -152(%rbp)
 2940      FFFFFF00 
 2940      000000
 2941              	.L164:
 165:/usr/include/c++/9/bits/char_traits.h ****         ++__i;
 2942              		.loc 2 165 14
 2943 009f 498D4424 		leaq	-64(%r12), %rax
 2943      C0
 2944 00a4 48C1E803 		shrq	$3, %rax
 2945 00a8 48050080 		addq	$2147450880, %rax
 2945      FF7F
 2946 00ae C60001   		movb	$1, (%rax)
 165:/usr/include/c++/9/bits/char_traits.h ****         ++__i;
 2947              		.loc 2 165 17
 2948 00b1 498D4424 		leaq	-64(%r12), %rax
 2948      C0
 2949 00b6 4889C2   		movq	%rax, %rdx
 2950 00b9 4889D0   		movq	%rdx, %rax
 2951 00bc 48C1E803 		shrq	$3, %rax
 2952 00c0 48050080 		addq	$2147450880, %rax
 2952      FF7F
 2953 00c6 0FB600   		movzbl	(%rax), %eax
 2954 00c9 84C0     		testb	%al, %al
 2955 00cb 0F95C1   		setne	%cl
 2956 00ce 84C0     		testb	%al, %al
 2957 00d0 0F9EC0   		setle	%al
 2958 00d3 21C8     		andl	%ecx, %eax
 2959 00d5 84C0     		testb	%al, %al
 2960 00d7 7408     		je	.L158
 2961 00d9 4889D7   		movq	%rdx, %rdi
 2962 00dc E8000000 		call	__asan_report_store1@PLT
 2962      00
 2963              	.L158:
 2964 00e1 41C64424 		movb	$0, -64(%r12)
 2964      C000
 165:/usr/include/c++/9/bits/char_traits.h ****         ++__i;
 2965              		.loc 2 165 21
 2966 00e7 488B9558 		movq	-168(%rbp), %rdx
 2966      FFFFFF
 2967 00ee 488B8568 		movq	-152(%rbp), %rax
 2967      FFFFFF
 2968 00f5 4801D0   		addq	%rdx, %rax
 2969 00f8 488B8D68 		movq	-152(%rbp), %rcx
 2969      FFFFFF
 2970 00ff 48F7D1   		notq	%rcx
 2971 0102 48C1E93F 		shrq	$63, %rcx
 2972 0106 84C9     		testb	%cl, %cl
 2973 0108 7420     		je	.L159
 2974 010a 4839D0   		cmpq	%rdx, %rax
 2975 010d 7320     		jnb	.L160
 2976              	.L161:
 2977 010f 488B8D58 		movq	-168(%rbp), %rcx
 2977      FFFFFF
 2978 0116 4889C2   		movq	%rax, %rdx
 2979 0119 4889CE   		movq	%rcx, %rsi
 2980 011c 488D3D00 		leaq	.Lubsan_data411(%rip), %rdi
 2980      000000
 2981 0123 E8000000 		call	__ubsan_handle_pointer_overflow@PLT
 2981      00
 2982 0128 EB05     		jmp	.L160
 2983              	.L159:
 2984 012a 4839D0   		cmpq	%rdx, %rax
 2985 012d 77E0     		ja	.L161
 2986              	.L160:
 2987 012f 488B9558 		movq	-168(%rbp), %rdx
 2987      FFFFFF
 2988 0136 488B8568 		movq	-152(%rbp), %rax
 2988      FFFFFF
 2989 013d 4C8D3402 		leaq	(%rdx,%rax), %r14
 2990 0141 4D85F6   		testq	%r14, %r14
 2991 0144 7511     		jne	.L162
 2992 0146 BE000000 		movl	$0, %esi
 2992      00
 2993 014b 488D3D00 		leaq	.Lubsan_data412(%rip), %rdi
 2993      000000
 2994 0152 E8000000 		call	__ubsan_handle_type_mismatch_v1@PLT
 2994      00
 2995              	.L162:
 165:/usr/include/c++/9/bits/char_traits.h ****         ++__i;
 2996              		.loc 2 165 17
 2997 0157 498D4424 		leaq	-64(%r12), %rax
 2997      C0
 2998 015c 4889C6   		movq	%rax, %rsi
 2999 015f 4C89F7   		movq	%r14, %rdi
 3000 0162 E8000000 		call	_ZN9__gnu_cxx11char_traitsIcE2eqERKcS3_
 3000      00
 165:/usr/include/c++/9/bits/char_traits.h ****         ++__i;
 3001              		.loc 2 165 14
 3002 0167 83F001   		xorl	$1, %eax
 3003 016a 89C2     		movl	%eax, %edx
 165:/usr/include/c++/9/bits/char_traits.h ****         ++__i;
 3004              		.loc 2 165 17
 3005 016c 498D4424 		leaq	-64(%r12), %rax
 3005      C0
 3006 0171 48C1E803 		shrq	$3, %rax
 3007 0175 48050080 		addq	$2147450880, %rax
 3007      FF7F
 3008 017b C600F8   		movb	$-8, (%rax)
 165:/usr/include/c++/9/bits/char_traits.h ****         ++__i;
 3009              		.loc 2 165 14
 3010 017e 84D2     		testb	%dl, %dl
 3011 0180 740D     		je	.L163
 166:/usr/include/c++/9/bits/char_traits.h ****       return __i;
 3012              		.loc 2 166 9
 3013 0182 48838568 		addq	$1, -152(%rbp)
 3013      FFFFFF01 
 165:/usr/include/c++/9/bits/char_traits.h ****         ++__i;
 3014              		.loc 2 165 7
 3015 018a E910FFFF 		jmp	.L164
 3015      FF
 3016              	.L163:
 167:/usr/include/c++/9/bits/char_traits.h ****     }
 3017              		.loc 2 167 14
 3018 018f 488B8568 		movq	-152(%rbp), %rax
 3018      FFFFFF
 3019 0196 4889C2   		movq	%rax, %rdx
 161:/usr/include/c++/9/bits/char_traits.h ****     length(const char_type* __p)
 3020              		.loc 2 161 5
 3021 0199 4939DF   		cmpq	%rbx, %r15
 3022 019c 7421     		je	.L155
 3023 019e 48C7030E 		movq	$1172321806, (%rbx)
 3023      36E045
 3024 01a5 48B8F5F5 		movabsq	$-723401728380766731, %rax
 3024      F5F5F5F5 
 3024      F5F5
 3025 01af 49898500 		movq	%rax, 2147450880(%r13)
 3025      80FF7F
 3026 01b6 488B4338 		movq	56(%rbx), %rax
 3027 01ba C60000   		movb	$0, (%rax)
 3028 01bd EB0B     		jmp	.L156
 3029              	.L155:
 3030 01bf 49C78500 		movq	$0, 2147450880(%r13)
 3030      80FF7F00 
 3030      000000
 3031              	.L156:
 168:/usr/include/c++/9/bits/char_traits.h **** 
 3032              		.loc 2 168 5
 3033 01ca 488B45C8 		movq	-56(%rbp), %rax
 3034 01ce 64483304 		xorq	%fs:40, %rax
 3034      25280000 
 3034      00
 3035 01d7 7405     		je	.L166
 3036 01d9 E8000000 		call	__stack_chk_fail@PLT
 3036      00
 3037              	.L166:
 3038 01de 4889D0   		movq	%rdx, %rax
 3039 01e1 4881C488 		addq	$136, %rsp
 3039      000000
 3040 01e8 5B       		popq	%rbx
 3041 01e9 415C     		popq	%r12
 3042 01eb 415D     		popq	%r13
 3043 01ed 415E     		popq	%r14
 3044 01ef 415F     		popq	%r15
 3045 01f1 5D       		popq	%rbp
 3046              		.cfi_def_cfa 7, 8
 3047 01f2 C3       		ret
 3048              		.cfi_endproc
 3049              	.LFE2354:
 3051              		.data
 3052              		.align 32
 3055              	.Lubsan_type18:
 3058 03a4 27737472 		.string	"'struct allocator'"
 3058      75637420 
 3058      616C6C6F 
 3058      6361746F 
 3058      722700
 3059 03b7 00000000 		.zero	41
 3059      00000000 
 3059      00000000 
 3059      00000000 
 3059      00000000 
 3060              		.section	.rodata
 3061 0353 00000000 		.align 32
 3061      00000000 
 3061      00000000 
 3061      00
 3062              	.LC9:
 3063 0360 2F757372 		.string	"/usr/include/c++/9/bits/basic_string.h"
 3063      2F696E63 
 3063      6C756465 
 3063      2F632B2B 
 3063      2F392F62 
 3064 0387 00000000 		.zero	57
 3064      00000000 
 3064      00000000 
 3064      00000000 
 3064      00000000 
 3065              		.section	.data.rel.local
 3066              		.align 32
 3069              	.Lubsan_data413:
 3070 07c0 00000000 		.quad	.LC9
 3070      00000000 
 3071 07c8 9A000000 		.long	154
 3072 07cc 0E000000 		.long	14
 3073 07d0 00000000 		.quad	.Lubsan_type18
 3073      00000000 
 3074 07d8 00       		.byte	0
 3075 07d9 04       		.byte	4
 3076 07da 00000000 		.zero	6
 3076      0000
 3077 07e0 00000000 		.zero	32
 3077      00000000 
 3077      00000000 
 3077      00000000 
 3077      00000000 
 3078              		.data
 3079              		.align 32
 3082              	.Lubsan_type19:
 3085 03e4 27737472 		.string	"'struct <unknown>'"
 3085      75637420 
 3085      3C756E6B 
 3085      6E6F776E 
 3085      3E2700
 3086 03f7 00000000 		.zero	41
 3086      00000000 
 3086      00000000 
 3086      00000000 
 3086      00000000 
 3087              		.section	.data.rel.local
 3088              		.align 32
 3091              	.Lubsan_data414:
 3092 0800 00000000 		.quad	.LC9
 3092      00000000 
 3093 0808 9A000000 		.long	154
 3094 080c 0E000000 		.long	14
 3095 0810 00000000 		.quad	.Lubsan_type19
 3095      00000000 
 3096 0818 03       		.byte	3
 3097 0819 02       		.byte	2
 3098 081a 00000000 		.zero	6
 3098      0000
 3099 0820 00000000 		.zero	32
 3099      00000000 
 3099      00000000 
 3099      00000000 
 3099      00000000 
 3100              		.section	.text._ZNSt7__cxx1112basic_stringIcSt11char_traitsIcESaIcEE12_Alloc_hiderD2Ev,"axG",@prog
 3101              		.align 2
 3102              		.weak	_ZNSt7__cxx1112basic_stringIcSt11char_traitsIcESaIcEE12_Alloc_hiderD2Ev
 3104              	_ZNSt7__cxx1112basic_stringIcSt11char_traitsIcESaIcEE12_Alloc_hiderD2Ev:
 3105              	.LASANPC2457:
 3106              	.LFB2457:
 3107              		.file 5 "/usr/include/c++/9/bits/basic_string.h"
   1:/usr/include/c++/9/bits/basic_string.h **** // Components for manipulating sequences of characters -*- C++ -*-
   2:/usr/include/c++/9/bits/basic_string.h **** 
   3:/usr/include/c++/9/bits/basic_string.h **** // Copyright (C) 1997-2019 Free Software Foundation, Inc.
   4:/usr/include/c++/9/bits/basic_string.h **** //
   5:/usr/include/c++/9/bits/basic_string.h **** // This file is part of the GNU ISO C++ Library.  This library is free
   6:/usr/include/c++/9/bits/basic_string.h **** // software; you can redistribute it and/or modify it under the
   7:/usr/include/c++/9/bits/basic_string.h **** // terms of the GNU General Public License as published by the
   8:/usr/include/c++/9/bits/basic_string.h **** // Free Software Foundation; either version 3, or (at your option)
   9:/usr/include/c++/9/bits/basic_string.h **** // any later version.
  10:/usr/include/c++/9/bits/basic_string.h **** 
  11:/usr/include/c++/9/bits/basic_string.h **** // This library is distributed in the hope that it will be useful,
  12:/usr/include/c++/9/bits/basic_string.h **** // but WITHOUT ANY WARRANTY; without even the implied warranty of
  13:/usr/include/c++/9/bits/basic_string.h **** // MERCHANTABILITY or FITNESS FOR A PARTICULAR PURPOSE.  See the
  14:/usr/include/c++/9/bits/basic_string.h **** // GNU General Public License for more details.
  15:/usr/include/c++/9/bits/basic_string.h **** 
  16:/usr/include/c++/9/bits/basic_string.h **** // Under Section 7 of GPL version 3, you are granted additional
  17:/usr/include/c++/9/bits/basic_string.h **** // permissions described in the GCC Runtime Library Exception, version
  18:/usr/include/c++/9/bits/basic_string.h **** // 3.1, as published by the Free Software Foundation.
  19:/usr/include/c++/9/bits/basic_string.h **** 
  20:/usr/include/c++/9/bits/basic_string.h **** // You should have received a copy of the GNU General Public License and
  21:/usr/include/c++/9/bits/basic_string.h **** // a copy of the GCC Runtime Library Exception along with this program;
  22:/usr/include/c++/9/bits/basic_string.h **** // see the files COPYING3 and COPYING.RUNTIME respectively.  If not, see
  23:/usr/include/c++/9/bits/basic_string.h **** // <http://www.gnu.org/licenses/>.
  24:/usr/include/c++/9/bits/basic_string.h **** 
  25:/usr/include/c++/9/bits/basic_string.h **** /** @file bits/basic_string.h
  26:/usr/include/c++/9/bits/basic_string.h ****  *  This is an internal header file, included by other library headers.
  27:/usr/include/c++/9/bits/basic_string.h ****  *  Do not attempt to use it directly. @headername{string}
  28:/usr/include/c++/9/bits/basic_string.h ****  */
  29:/usr/include/c++/9/bits/basic_string.h **** 
  30:/usr/include/c++/9/bits/basic_string.h **** //
  31:/usr/include/c++/9/bits/basic_string.h **** // ISO C++ 14882: 21 Strings library
  32:/usr/include/c++/9/bits/basic_string.h **** //
  33:/usr/include/c++/9/bits/basic_string.h **** 
  34:/usr/include/c++/9/bits/basic_string.h **** #ifndef _BASIC_STRING_H
  35:/usr/include/c++/9/bits/basic_string.h **** #define _BASIC_STRING_H 1
  36:/usr/include/c++/9/bits/basic_string.h **** 
  37:/usr/include/c++/9/bits/basic_string.h **** #pragma GCC system_header
  38:/usr/include/c++/9/bits/basic_string.h **** 
  39:/usr/include/c++/9/bits/basic_string.h **** #include <ext/atomicity.h>
  40:/usr/include/c++/9/bits/basic_string.h **** #include <ext/alloc_traits.h>
  41:/usr/include/c++/9/bits/basic_string.h **** #include <debug/debug.h>
  42:/usr/include/c++/9/bits/basic_string.h **** 
  43:/usr/include/c++/9/bits/basic_string.h **** #if __cplusplus >= 201103L
  44:/usr/include/c++/9/bits/basic_string.h **** #include <initializer_list>
  45:/usr/include/c++/9/bits/basic_string.h **** #endif
  46:/usr/include/c++/9/bits/basic_string.h **** 
  47:/usr/include/c++/9/bits/basic_string.h **** #if __cplusplus >= 201703L
  48:/usr/include/c++/9/bits/basic_string.h **** # include <string_view>
  49:/usr/include/c++/9/bits/basic_string.h **** #endif
  50:/usr/include/c++/9/bits/basic_string.h **** 
  51:/usr/include/c++/9/bits/basic_string.h **** namespace std _GLIBCXX_VISIBILITY(default)
  52:/usr/include/c++/9/bits/basic_string.h **** {
  53:/usr/include/c++/9/bits/basic_string.h **** _GLIBCXX_BEGIN_NAMESPACE_VERSION
  54:/usr/include/c++/9/bits/basic_string.h **** 
  55:/usr/include/c++/9/bits/basic_string.h **** #if __cplusplus >= 201703L
  56:/usr/include/c++/9/bits/basic_string.h **** // Support P0426R1 changes to char_traits in C++17.
  57:/usr/include/c++/9/bits/basic_string.h **** # define __cpp_lib_constexpr_string 201611L
  58:/usr/include/c++/9/bits/basic_string.h **** #endif
  59:/usr/include/c++/9/bits/basic_string.h **** 
  60:/usr/include/c++/9/bits/basic_string.h **** #if _GLIBCXX_USE_CXX11_ABI
  61:/usr/include/c++/9/bits/basic_string.h **** _GLIBCXX_BEGIN_NAMESPACE_CXX11
  62:/usr/include/c++/9/bits/basic_string.h ****   /**
  63:/usr/include/c++/9/bits/basic_string.h ****    *  @class basic_string basic_string.h <string>
  64:/usr/include/c++/9/bits/basic_string.h ****    *  @brief  Managing sequences of characters and character-like objects.
  65:/usr/include/c++/9/bits/basic_string.h ****    *
  66:/usr/include/c++/9/bits/basic_string.h ****    *  @ingroup strings
  67:/usr/include/c++/9/bits/basic_string.h ****    *  @ingroup sequences
  68:/usr/include/c++/9/bits/basic_string.h ****    *
  69:/usr/include/c++/9/bits/basic_string.h ****    *  @tparam _CharT  Type of character
  70:/usr/include/c++/9/bits/basic_string.h ****    *  @tparam _Traits  Traits for character type, defaults to
  71:/usr/include/c++/9/bits/basic_string.h ****    *                   char_traits<_CharT>.
  72:/usr/include/c++/9/bits/basic_string.h ****    *  @tparam _Alloc  Allocator type, defaults to allocator<_CharT>.
  73:/usr/include/c++/9/bits/basic_string.h ****    *
  74:/usr/include/c++/9/bits/basic_string.h ****    *  Meets the requirements of a <a href="tables.html#65">container</a>, a
  75:/usr/include/c++/9/bits/basic_string.h ****    *  <a href="tables.html#66">reversible container</a>, and a
  76:/usr/include/c++/9/bits/basic_string.h ****    *  <a href="tables.html#67">sequence</a>.  Of the
  77:/usr/include/c++/9/bits/basic_string.h ****    *  <a href="tables.html#68">optional sequence requirements</a>, only
  78:/usr/include/c++/9/bits/basic_string.h ****    *  @c push_back, @c at, and @c %array access are supported.
  79:/usr/include/c++/9/bits/basic_string.h ****    */
  80:/usr/include/c++/9/bits/basic_string.h ****   template<typename _CharT, typename _Traits, typename _Alloc>
  81:/usr/include/c++/9/bits/basic_string.h ****     class basic_string
  82:/usr/include/c++/9/bits/basic_string.h ****     {
  83:/usr/include/c++/9/bits/basic_string.h ****       typedef typename __gnu_cxx::__alloc_traits<_Alloc>::template
  84:/usr/include/c++/9/bits/basic_string.h **** 	rebind<_CharT>::other _Char_alloc_type;
  85:/usr/include/c++/9/bits/basic_string.h ****       typedef __gnu_cxx::__alloc_traits<_Char_alloc_type> _Alloc_traits;
  86:/usr/include/c++/9/bits/basic_string.h **** 
  87:/usr/include/c++/9/bits/basic_string.h ****       // Types:
  88:/usr/include/c++/9/bits/basic_string.h ****     public:
  89:/usr/include/c++/9/bits/basic_string.h ****       typedef _Traits					traits_type;
  90:/usr/include/c++/9/bits/basic_string.h ****       typedef typename _Traits::char_type		value_type;
  91:/usr/include/c++/9/bits/basic_string.h ****       typedef _Char_alloc_type				allocator_type;
  92:/usr/include/c++/9/bits/basic_string.h ****       typedef typename _Alloc_traits::size_type		size_type;
  93:/usr/include/c++/9/bits/basic_string.h ****       typedef typename _Alloc_traits::difference_type	difference_type;
  94:/usr/include/c++/9/bits/basic_string.h ****       typedef typename _Alloc_traits::reference		reference;
  95:/usr/include/c++/9/bits/basic_string.h ****       typedef typename _Alloc_traits::const_reference	const_reference;
  96:/usr/include/c++/9/bits/basic_string.h ****       typedef typename _Alloc_traits::pointer		pointer;
  97:/usr/include/c++/9/bits/basic_string.h ****       typedef typename _Alloc_traits::const_pointer	const_pointer;
  98:/usr/include/c++/9/bits/basic_string.h ****       typedef __gnu_cxx::__normal_iterator<pointer, basic_string>  iterator;
  99:/usr/include/c++/9/bits/basic_string.h ****       typedef __gnu_cxx::__normal_iterator<const_pointer, basic_string>
 100:/usr/include/c++/9/bits/basic_string.h **** 							const_iterator;
 101:/usr/include/c++/9/bits/basic_string.h ****       typedef std::reverse_iterator<const_iterator>	const_reverse_iterator;
 102:/usr/include/c++/9/bits/basic_string.h ****       typedef std::reverse_iterator<iterator>		reverse_iterator;
 103:/usr/include/c++/9/bits/basic_string.h **** 
 104:/usr/include/c++/9/bits/basic_string.h ****       ///  Value returned by various member functions when they fail.
 105:/usr/include/c++/9/bits/basic_string.h ****       static const size_type	npos = static_cast<size_type>(-1);
 106:/usr/include/c++/9/bits/basic_string.h **** 
 107:/usr/include/c++/9/bits/basic_string.h ****     protected:
 108:/usr/include/c++/9/bits/basic_string.h ****       // type used for positions in insert, erase etc.
 109:/usr/include/c++/9/bits/basic_string.h **** #if __cplusplus < 201103L
 110:/usr/include/c++/9/bits/basic_string.h ****       typedef iterator __const_iterator;
 111:/usr/include/c++/9/bits/basic_string.h **** #else
 112:/usr/include/c++/9/bits/basic_string.h ****       typedef const_iterator __const_iterator;
 113:/usr/include/c++/9/bits/basic_string.h **** #endif
 114:/usr/include/c++/9/bits/basic_string.h **** 
 115:/usr/include/c++/9/bits/basic_string.h ****     private:
 116:/usr/include/c++/9/bits/basic_string.h **** #if __cplusplus >= 201703L
 117:/usr/include/c++/9/bits/basic_string.h ****       // A helper type for avoiding boiler-plate.
 118:/usr/include/c++/9/bits/basic_string.h ****       typedef basic_string_view<_CharT, _Traits> __sv_type;
 119:/usr/include/c++/9/bits/basic_string.h **** 
 120:/usr/include/c++/9/bits/basic_string.h ****       template<typename _Tp, typename _Res>
 121:/usr/include/c++/9/bits/basic_string.h **** 	using _If_sv = enable_if_t<
 122:/usr/include/c++/9/bits/basic_string.h **** 	  __and_<is_convertible<const _Tp&, __sv_type>,
 123:/usr/include/c++/9/bits/basic_string.h **** 		 __not_<is_convertible<const _Tp*, const basic_string*>>,
 124:/usr/include/c++/9/bits/basic_string.h **** 		 __not_<is_convertible<const _Tp&, const _CharT*>>>::value,
 125:/usr/include/c++/9/bits/basic_string.h **** 	  _Res>;
 126:/usr/include/c++/9/bits/basic_string.h **** 
 127:/usr/include/c++/9/bits/basic_string.h ****       // Allows an implicit conversion to __sv_type.
 128:/usr/include/c++/9/bits/basic_string.h ****       static __sv_type
 129:/usr/include/c++/9/bits/basic_string.h ****       _S_to_string_view(__sv_type __svt) noexcept
 130:/usr/include/c++/9/bits/basic_string.h ****       { return __svt; }
 131:/usr/include/c++/9/bits/basic_string.h **** 
 132:/usr/include/c++/9/bits/basic_string.h ****       // Wraps a string_view by explicit conversion and thus
 133:/usr/include/c++/9/bits/basic_string.h ****       // allows to add an internal constructor that does not
 134:/usr/include/c++/9/bits/basic_string.h ****       // participate in overload resolution when a string_view
 135:/usr/include/c++/9/bits/basic_string.h ****       // is provided.
 136:/usr/include/c++/9/bits/basic_string.h ****       struct __sv_wrapper
 137:/usr/include/c++/9/bits/basic_string.h ****       {
 138:/usr/include/c++/9/bits/basic_string.h **** 	explicit __sv_wrapper(__sv_type __sv) noexcept : _M_sv(__sv) { }
 139:/usr/include/c++/9/bits/basic_string.h **** 	__sv_type _M_sv;
 140:/usr/include/c++/9/bits/basic_string.h ****       };
 141:/usr/include/c++/9/bits/basic_string.h **** 
 142:/usr/include/c++/9/bits/basic_string.h ****       /**
 143:/usr/include/c++/9/bits/basic_string.h ****        *  @brief  Only internally used: Construct string from a string view
 144:/usr/include/c++/9/bits/basic_string.h ****        *          wrapper.
 145:/usr/include/c++/9/bits/basic_string.h ****        *  @param  __svw  string view wrapper.
 146:/usr/include/c++/9/bits/basic_string.h ****        *  @param  __a  Allocator to use.
 147:/usr/include/c++/9/bits/basic_string.h ****        */
 148:/usr/include/c++/9/bits/basic_string.h ****       explicit
 149:/usr/include/c++/9/bits/basic_string.h ****       basic_string(__sv_wrapper __svw, const _Alloc& __a)
 150:/usr/include/c++/9/bits/basic_string.h ****       : basic_string(__svw._M_sv.data(), __svw._M_sv.size(), __a) { }
 151:/usr/include/c++/9/bits/basic_string.h **** #endif
 152:/usr/include/c++/9/bits/basic_string.h **** 
 153:/usr/include/c++/9/bits/basic_string.h ****       // Use empty-base optimization: http://www.cantrip.org/emptyopt.html
 154:/usr/include/c++/9/bits/basic_string.h ****       struct _Alloc_hider : allocator_type // TODO check __is_final
 3108              		.loc 5 154 14
 3109              		.cfi_startproc
 3110 0000 F30F1EFA 		endbr64
 3111 0004 55       		pushq	%rbp
 3112              		.cfi_def_cfa_offset 16
 3113              		.cfi_offset 6, -16
 3114 0005 4889E5   		movq	%rsp, %rbp
 3115              		.cfi_def_cfa_register 6
 3116 0008 4883EC10 		subq	$16, %rsp
 3117 000c 48897DF8 		movq	%rdi, -8(%rbp)
 3118              	.LBB9:
 3119              		.loc 5 154 14
 3120 0010 48837DF8 		cmpq	$0, -8(%rbp)
 3120      00
 3121 0015 7511     		jne	.L168
 3122 0017 BE000000 		movl	$0, %esi
 3122      00
 3123 001c 488D3D00 		leaq	.Lubsan_data413(%rip), %rdi
 3123      000000
 3124 0023 E8000000 		call	__ubsan_handle_type_mismatch_v1@PLT
 3124      00
 3125              	.L168:
 3126 0028 488B45F8 		movq	-8(%rbp), %rax
 3127 002c 4889C7   		movq	%rax, %rdi
 3128 002f E8000000 		call	_ZNSaIcED2Ev@PLT
 3128      00
 3129 0034 488B45F8 		movq	-8(%rbp), %rax
 3130 0038 48837DF8 		cmpq	$0, -8(%rbp)
 3130      00
 3131 003d 740B     		je	.L169
 3132 003f 4889C2   		movq	%rax, %rdx
 3133 0042 83E207   		andl	$7, %edx
 3134 0045 4885D2   		testq	%rdx, %rdx
 3135 0048 740F     		je	.L171
 3136              	.L169:
 3137 004a 4889C6   		movq	%rax, %rsi
 3138 004d 488D3D00 		leaq	.Lubsan_data414(%rip), %rdi
 3138      000000
 3139 0054 E8000000 		call	__ubsan_handle_type_mismatch_v1@PLT
 3139      00
 3140              	.L171:
 3141              	.LBE9:
 3142 0059 90       		nop
 3143 005a C9       		leave
 3144              		.cfi_def_cfa 7, 8
 3145 005b C3       		ret
 3146              		.cfi_endproc
 3147              	.LFE2457:
 3149              		.weak	_ZNSt7__cxx1112basic_stringIcSt11char_traitsIcESaIcEE12_Alloc_hiderD1Ev
 3150              		.set	_ZNSt7__cxx1112basic_stringIcSt11char_traitsIcESaIcEE12_Alloc_hiderD1Ev,_ZNSt7__cxx1112basic_
 3151              		.data
 3152              		.align 32
 3155              	.Lubsan_type20:
 3158 0424 27737472 		.string	"'struct <unknown>'"
 3158      75637420 
 3158      3C756E6B 
 3158      6E6F776E 
 3158      3E2700
 3159 0437 00000000 		.zero	41
 3159      00000000 
 3159      00000000 
 3159      00000000 
 3159      00000000 
 3160              		.section	.data.rel.local
 3161              		.align 32
 3164              	.Lubsan_data415:
 3165 0840 00000000 		.quad	.LC9
 3165      00000000 
 3166 0848 11020000 		.long	529
 3167 084c 07000000 		.long	7
 3168 0850 00000000 		.quad	.Lubsan_type20
 3168      00000000 
 3169 0858 03       		.byte	3
 3170 0859 02       		.byte	2
 3171 085a 00000000 		.zero	6
 3171      0000
 3172 0860 00000000 		.zero	32
 3172      00000000 
 3172      00000000 
 3172      00000000 
 3172      00000000 
 3173              		.align 32
 3176              	.Lubsan_data416:
 3177 0880 00000000 		.quad	.LC9
 3177      00000000 
 3178 0888 12020000 		.long	530
 3179 088c 29000000 		.long	41
 3180 0890 00000000 		.quad	.Lubsan_type5
 3180      00000000 
 3181 0898 03       		.byte	3
 3182 0899 03       		.byte	3
 3183 089a 00000000 		.zero	6
 3183      0000
 3184 08a0 00000000 		.zero	32
 3184      00000000 
 3184      00000000 
 3184      00000000 
 3184      00000000 
 3185              		.data
 3186              		.align 32
 3189              	.Lubsan_type21:
 3192 0464 27737472 		.string	"'struct _Alloc_hider'"
 3192      75637420 
 3192      5F416C6C 
 3192      6F635F68 
 3192      69646572 
 3193 047a 00000000 		.zero	38
 3193      00000000 
 3193      00000000 
 3193      00000000 
 3193      00000000 
 3194              		.section	.data.rel.local
 3195              		.align 32
 3198              	.Lubsan_data417:
 3199 08c0 00000000 		.quad	.LC9
 3199      00000000 
 3200 08c8 12020000 		.long	530
 3201 08cc 29000000 		.long	41
 3202 08d0 00000000 		.quad	.Lubsan_type21
 3202      00000000 
 3203 08d8 03       		.byte	3
 3204 08d9 05       		.byte	5
 3205 08da 00000000 		.zero	6
 3205      0000
 3206 08e0 00000000 		.zero	32
 3206      00000000 
 3206      00000000 
 3206      00000000 
 3206      00000000 
 3207              		.align 32
 3210              	.Lubsan_data418:
 3211 0900 00000000 		.quad	.LC9
 3211      00000000 
 3212 0908 12020000 		.long	530
 3213 090c 29000000 		.long	41
 3214 0910 00000000 		.quad	.Lubsan_type5
 3214      00000000 
 3215 0918 03       		.byte	3
 3216 0919 04       		.byte	4
 3217 091a 00000000 		.zero	6
 3217      0000
 3218 0920 00000000 		.zero	32
 3218      00000000 
 3218      00000000 
 3218      00000000 
 3218      00000000 
 3219              		.align 32
 3222              	.Lubsan_data419:
 3223 0940 00000000 		.quad	.LC9
 3223      00000000 
 3224 0948 13020000 		.long	531
 3225 094c 09000000 		.long	9
 3226 0950 00000000 		.quad	.Lubsan_type5
 3226      00000000 
 3227 0958 03       		.byte	3
 3228 0959 04       		.byte	4
 3229 095a 00000000 		.zero	6
 3229      0000
 3230 0960 00000000 		.zero	32
 3230      00000000 
 3230      00000000 
 3230      00000000 
 3230      00000000 
 3231              		.align 32
 3234              	.Lubsan_data420:
 3235 0980 00000000 		.quad	.LC9
 3235      00000000 
 3236 0988 13020000 		.long	531
 3237 098c 09000000 		.long	9
 3238 0990 00000000 		.zero	48
 3238      00000000 
 3238      00000000 
 3238      00000000 
 3238      00000000 
 3239              		.align 32
 3242              	.Lubsan_data421:
 3243 09c0 00000000 		.quad	.LC9
 3243      00000000 
 3244 09c8 13020000 		.long	531
 3245 09cc 09000000 		.long	9
 3246 09d0 00000000 		.zero	48
 3246      00000000 
 3246      00000000 
 3246      00000000 
 3246      00000000 
 3247              		.align 32
 3250              	.Lubsan_data422:
 3251 0a00 00000000 		.quad	.LC9
 3251      00000000 
 3252 0a08 12020000 		.long	530
 3253 0a0c 29000000 		.long	41
 3254 0a10 00000000 		.quad	.Lubsan_type5
 3254      00000000 
 3255 0a18 03       		.byte	3
 3256 0a19 03       		.byte	3
 3257 0a1a 00000000 		.zero	6
 3257      0000
 3258 0a20 00000000 		.zero	32
 3258      00000000 
 3258      00000000 
 3258      00000000 
 3258      00000000 
 3259              		.align 32
 3262              	.Lubsan_data423:
 3263 0a40 00000000 		.quad	.LC9
 3263      00000000 
 3264 0a48 12020000 		.long	530
 3265 0a4c 29000000 		.long	41
 3266 0a50 00000000 		.quad	.Lubsan_type21
 3266      00000000 
 3267 0a58 03       		.byte	3
 3268 0a59 04       		.byte	4
 3269 0a5a 00000000 		.zero	6
 3269      0000
 3270 0a60 00000000 		.zero	32
 3270      00000000 
 3270      00000000 
 3270      00000000 
 3270      00000000 
 3271              		.section	.text._ZNSt7__cxx1112basic_stringIcSt11char_traitsIcESaIcEEC2IS3_EEPKcRKS3_,"axG",@progbi
 3272              		.align 2
 3273              		.weak	_ZNSt7__cxx1112basic_stringIcSt11char_traitsIcESaIcEEC2IS3_EEPKcRKS3_
 3275              	_ZNSt7__cxx1112basic_stringIcSt11char_traitsIcESaIcEEC2IS3_EEPKcRKS3_:
 3276              	.LASANPC2628:
 3277              	.LFB2628:
 155:/usr/include/c++/9/bits/basic_string.h ****       {
 156:/usr/include/c++/9/bits/basic_string.h **** #if __cplusplus < 201103L
 157:/usr/include/c++/9/bits/basic_string.h **** 	_Alloc_hider(pointer __dat, const _Alloc& __a = _Alloc())
 158:/usr/include/c++/9/bits/basic_string.h **** 	: allocator_type(__a), _M_p(__dat) { }
 159:/usr/include/c++/9/bits/basic_string.h **** #else
 160:/usr/include/c++/9/bits/basic_string.h **** 	_Alloc_hider(pointer __dat, const _Alloc& __a)
 161:/usr/include/c++/9/bits/basic_string.h **** 	: allocator_type(__a), _M_p(__dat) { }
 162:/usr/include/c++/9/bits/basic_string.h **** 
 163:/usr/include/c++/9/bits/basic_string.h **** 	_Alloc_hider(pointer __dat, _Alloc&& __a = _Alloc())
 164:/usr/include/c++/9/bits/basic_string.h **** 	: allocator_type(std::move(__a)), _M_p(__dat) { }
 165:/usr/include/c++/9/bits/basic_string.h **** #endif
 166:/usr/include/c++/9/bits/basic_string.h **** 
 167:/usr/include/c++/9/bits/basic_string.h **** 	pointer _M_p; // The actual data.
 168:/usr/include/c++/9/bits/basic_string.h ****       };
 169:/usr/include/c++/9/bits/basic_string.h **** 
 170:/usr/include/c++/9/bits/basic_string.h ****       _Alloc_hider	_M_dataplus;
 171:/usr/include/c++/9/bits/basic_string.h ****       size_type		_M_string_length;
 172:/usr/include/c++/9/bits/basic_string.h **** 
 173:/usr/include/c++/9/bits/basic_string.h ****       enum { _S_local_capacity = 15 / sizeof(_CharT) };
 174:/usr/include/c++/9/bits/basic_string.h **** 
 175:/usr/include/c++/9/bits/basic_string.h ****       union
 176:/usr/include/c++/9/bits/basic_string.h ****       {
 177:/usr/include/c++/9/bits/basic_string.h **** 	_CharT           _M_local_buf[_S_local_capacity + 1];
 178:/usr/include/c++/9/bits/basic_string.h **** 	size_type        _M_allocated_capacity;
 179:/usr/include/c++/9/bits/basic_string.h ****       };
 180:/usr/include/c++/9/bits/basic_string.h **** 
 181:/usr/include/c++/9/bits/basic_string.h ****       void
 182:/usr/include/c++/9/bits/basic_string.h ****       _M_data(pointer __p)
 183:/usr/include/c++/9/bits/basic_string.h ****       { _M_dataplus._M_p = __p; }
 184:/usr/include/c++/9/bits/basic_string.h **** 
 185:/usr/include/c++/9/bits/basic_string.h ****       void
 186:/usr/include/c++/9/bits/basic_string.h ****       _M_length(size_type __length)
 187:/usr/include/c++/9/bits/basic_string.h ****       { _M_string_length = __length; }
 188:/usr/include/c++/9/bits/basic_string.h **** 
 189:/usr/include/c++/9/bits/basic_string.h ****       pointer
 190:/usr/include/c++/9/bits/basic_string.h ****       _M_data() const
 191:/usr/include/c++/9/bits/basic_string.h ****       { return _M_dataplus._M_p; }
 192:/usr/include/c++/9/bits/basic_string.h **** 
 193:/usr/include/c++/9/bits/basic_string.h ****       pointer
 194:/usr/include/c++/9/bits/basic_string.h ****       _M_local_data()
 195:/usr/include/c++/9/bits/basic_string.h ****       {
 196:/usr/include/c++/9/bits/basic_string.h **** #if __cplusplus >= 201103L
 197:/usr/include/c++/9/bits/basic_string.h **** 	return std::pointer_traits<pointer>::pointer_to(*_M_local_buf);
